
8aaaf200-2450-11e4-abe2-0002a5d5c51b.elf:     file format elf32-littlearm
8aaaf200-2450-11e4-abe2-0002a5d5c51b.elf
architecture: arm, flags 0x00000150:
HAS_SYMS, DYNAMIC, D_PAGED
start address 0x00000020

Program Header:
    LOAD off    0x00010000 vaddr 0x00000000 paddr 0x00000000 align 2**16
         filesz 0x00006e50 memsz 0x00006e50 flags r-x
    LOAD off    0x00016e50 vaddr 0x00006e50 paddr 0x00006e50 align 2**16
         filesz 0x000019e0 memsz 0x000019e0 flags r--
    LOAD off    0x00019000 vaddr 0x00009000 paddr 0x00009000 align 2**16
         filesz 0x00000094 memsz 0x0000abee flags rw-
 DYNAMIC off    0x00018654 vaddr 0x00008654 paddr 0x00008654 align 2**2
         filesz 0x00000078 memsz 0x00000078 flags rw-

Dynamic Section:
  HASH                 0x000087f0
  STRTAB               0x0000877c
  SYMTAB               0x000086cc
  STRSZ                0x00000071
  SYMENT               0x00000010
  DEBUG                0x00000000
  REL                  0x0000855c
  RELSZ                0x000000f8
  RELENT               0x00000008
  RELCOUNT             0x00000017
private flags = 5000402: [Version5 EABI] [hard-float ABI] [has entry point]

Sections:
Idx Name          Size      VMA       LMA       File off  Algn
  0 .ta_head      00000020  00000000  00000000  00010000  2**3
                  CONTENTS, ALLOC, LOAD, DATA
  1 .text         00006e30  00000020  00000020  00010020  2**3
                  CONTENTS, ALLOC, LOAD, READONLY, CODE
  2 .rodata       000016e0  00006e50  00006e50  00016e50  2**2
                  CONTENTS, ALLOC, LOAD, READONLY, DATA
  3 .got          0000002c  00008530  00008530  00018530  2**2
                  CONTENTS, ALLOC, LOAD, DATA
  4 .dynsym       000000b0  000086cc  000086cc  000186cc  2**2
                  CONTENTS, ALLOC, LOAD, READONLY, DATA
  5 .rel.got      00000040  00008614  00008614  00018614  2**2
                  CONTENTS, ALLOC, LOAD, READONLY, DATA
  6 .dynamic      00000078  00008654  00008654  00018654  2**2
                  CONTENTS, ALLOC, LOAD, DATA
  7 .dynstr       00000071  0000877c  0000877c  0001877c  2**0
                  CONTENTS, ALLOC, LOAD, READONLY, DATA
  8 .hash         00000040  000087f0  000087f0  000187f0  2**2
                  CONTENTS, ALLOC, LOAD, READONLY, DATA
  9 .data         00000094  00009000  00009000  00019000  2**2
                  CONTENTS, ALLOC, LOAD, DATA
 10 .bss          0000ab5a  00009094  00009094  00019094  2**2
                  ALLOC
 11 .debug_info   0000e4f3  00000000  00000000  00019094  2**0
                  CONTENTS, READONLY, DEBUGGING
 12 .debug_abbrev 00003dec  00000000  00000000  00027587  2**0
                  CONTENTS, READONLY, DEBUGGING
 13 .debug_loc    0000ce14  00000000  00000000  0002b373  2**0
                  CONTENTS, READONLY, DEBUGGING
 14 .debug_aranges 000004e8  00000000  00000000  00038187  2**0
                  CONTENTS, READONLY, DEBUGGING
 15 .debug_macro  00005495  00000000  00000000  0003866f  2**0
                  CONTENTS, READONLY, DEBUGGING
 16 .debug_line   000067ec  00000000  00000000  0003db04  2**0
                  CONTENTS, READONLY, DEBUGGING
 17 .debug_str    0000fa36  00000000  00000000  000442f0  2**0
                  CONTENTS, READONLY, DEBUGGING
 18 .comment      00000011  00000000  00000000  00053d26  2**0
                  CONTENTS, READONLY
 19 .ARM.attributes 00000038  00000000  00000000  00053d37  2**0
                  CONTENTS, READONLY
 20 .debug_frame  00001da0  00000000  00000000  00053d70  2**2
                  CONTENTS, READONLY, DEBUGGING
 21 .rel.dyn      000000b8  0000855c  0000855c  0001855c  2**2
                  CONTENTS, ALLOC, LOAD, READONLY, DATA
 22 .debug_ranges 00000560  00000000  00000000  00055b10  2**0
                  CONTENTS, READONLY, DEBUGGING
SYMBOL TABLE:
00000000 l    d  .ta_head	00000000 .ta_head
00000020 l    d  .text	00000000 .text
00006e50 l    d  .rodata	00000000 .rodata
00008530 l    d  .got	00000000 .got
00008614 l    d  .rel.got	00000000 .rel.got
00008654 l    d  .dynamic	00000000 .dynamic
000086cc l    d  .dynsym	00000000 .dynsym
0000877c l    d  .dynstr	00000000 .dynstr
000087f0 l    d  .hash	00000000 .hash
00009000 l    d  .data	00000000 .data
00009094 l    d  .bss	00000000 .bss
00000000 l    d  .debug_info	00000000 .debug_info
00000000 l    d  .debug_abbrev	00000000 .debug_abbrev
00000000 l    d  .debug_loc	00000000 .debug_loc
00000000 l    d  .debug_aranges	00000000 .debug_aranges
00000000 l    d  .debug_macro	00000000 .debug_macro
00000000 l    d  .debug_line	00000000 .debug_line
00000000 l    d  .debug_str	00000000 .debug_str
00000000 l    d  .comment	00000000 .comment
00000000 l    d  .ARM.attributes	00000000 .ARM.attributes
00000000 l    d  .debug_frame	00000000 .debug_frame
0000855c l    d  .rel.dyn	00000000 .rel.dyn
00000000 l    d  .debug_ranges	00000000 .debug_ranges
00000000 l    df *ABS*	00000000 user_ta_header.c
00006e54 l     O .rodata	00000004 __compound_literal.5
00006e58 l     O .rodata	00000004 __compound_literal.4
00006e5c l     O .rodata	00000004 __compound_literal.3
00006e60 l     O .rodata	00000001 __compound_literal.2
00006e61 l     O .rodata	00000001 __compound_literal.1
00006e62 l     O .rodata	00000001 __compound_literal.0
00000000 l    df *ABS*	00000000 optee_key_ta.c
00007bc8 l     O .rodata	00000014 __func__.4932
00007bdc l     O .rodata	00000015 __func__.4936
00007bf1 l     O .rodata	00000019 __func__.4943
00007c0a l     O .rodata	0000001a __func__.4947
00007c24 l     O .rodata	0000000a __func__.4953
00000000 l    df *ABS*	00000000 user_ta_entry.c
00000210 l     F .text	00000040 ta_header_get_session
00000250 l     F .text	0000007c ta_header_remove_session
00007d5f l     O .rodata	0000000d __func__.5447
00009070 l     O .data	00000008 ta_sessions
00009094 l     O .bss	00000004 ta_ref_count
00009098 l     O .bss	00000001 context_init
00000000 l    df *ABS*	00000000 utee_syscalls_a32.o
00000000 l    df *ABS*	00000000 tee_api_arith.c
000013a8 l     F .text	00000050 TEE_BigInt_Panic
00007d77 l     O .rodata	00000011 __func__.5235
00007d88 l     O .rodata	0000001f __func__.5280
000090c0 l     O .bss	00001b00 mempool_u32
00000000 l    df *ABS*	00000000 tee_api.c
00007e02 l     O .rodata	00000013 __func__.5417
00007e15 l     O .rodata	00000014 __func__.5429
00007e29 l     O .rodata	00000017 __func__.5440
00007e40 l     O .rodata	00000015 __func__.5446
00007e55 l     O .rodata	00000012 __func__.5479
00007e67 l     O .rodata	00000009 __func__.5484
00007e70 l     O .rodata	00000018 __func__.5489
00007e88 l     O .rodata	00000018 __func__.5494
00007ea0 l     O .rodata	0000000f __func__.5499
0000abc0 l     O .bss	00000004 tee_api_instance_data
00000000 l    df *ABS*	00000000 tee_api_panic.c
00000000 l    df *ABS*	00000000 utee_misc.c
00000000 l    df *ABS*	00000000 tee_user_mem.c
00001d04 l     F .text	00000054 print_buf
00001d58 l     F .text	000000c8 check_elem
00007eaf l     O .rodata	0000000b __func__.5054
00007eba l     O .rodata	0000000f __func__.5049
00007ec9 l     O .rodata	00000013 __func__.5073
00007edc l     O .rodata	00000012 __func__.5090
00007eee l     O .rodata	00000018 __func__.5098
00007f06 l     O .rodata	00000014 __func__.5103
0000abc4 l     O .bss	00000004 heap_level
0000abc8 l     O .bss	00000008 global_stats
00000000 l    df *ABS*	00000000 trace_ext.c
00007ffb l     O .rodata	0000000a prefix.4778
00008005 l     O .rodata	00000011 failed.4779
00000000 l    df *ABS*	00000000 assert.c
0000801b l     O .rodata	0000000c __func__.5242
00000000 l    df *ABS*	00000000 bget_malloc.c
00002398 l     F .text	0000003c raw_malloc_save_max_alloced_size
000023d4 l     F .text	000000d4 create_free_block
00009080 l     O .data	00000010 freelist
0000abd0 l     O .bss	00000004 totalloc
0000abd4 l     O .bss	00000004 max_alloc_heap
0000abd8 l     O .bss	00000004 numget
0000abdc l     O .bss	00000004 numrel
0000abe0 l     O .bss	00000004 malloc_pool_len
0000abe4 l     O .bss	00000004 malloc_pool
00000000 l    df *ABS*	00000000 snprintf.c
00000000 l    df *ABS*	00000000 stack_check.c
00000000 l    df *ABS*	00000000 memcmp.c
00000000 l    df *ABS*	00000000 memcpy.c
00000000 l    df *ABS*	00000000 memmove.c
00000000 l    df *ABS*	00000000 memset.c
00000000 l    df *ABS*	00000000 strlen.c
00000000 l    df *ABS*	00000000 snprintk.c
00008409 l     O .rodata	00000011 HEXDIGITS
0000841a l     O .rodata	00000011 hexdigits
00000000 l    df *ABS*	00000000 strlcpy.c
00000000 l    df *ABS*	00000000 trace.c
00008462 l     O .rodata	0000002d lvl_strs.4342
00000000 l    df *ABS*	00000000 memchr.c
00000000 l    df *ABS*	00000000 arm32_aeabi_ldivmod_a32.o
00000000 l    df *ABS*	00000000 arm32_aeabi_ldivmod.c
00000000 l    df *ABS*	00000000 mpa_misc.c
00000000 l    df *ABS*	00000000 mpa_montgomery.c
00000000 l    df *ABS*	00000000 mpa_primetest.c
00007ad0 l     O .rodata	00000010 const_miller_rabin_proof_limit
00007ae0 l     O .rodata	0000001c proof_a.4715
00007afc l     O .rodata	0000000c const_two
00007b08 l     O .rodata	000000b8 const_small_prime_factors
00000000 l    df *ABS*	00000000 mpa_conv.c
00000000 l    df *ABS*	00000000 mpa_div.c
00000000 l    df *ABS*	00000000 mpa_gcd.c
00004d20 l     F .text	00000074 __mpa_divby2
00004d94 l     F .text	00000104 __mpa_gcd.part.0
00004e98 l     F .text	00000258 __mpa_egcd
00000000 l    df *ABS*	00000000 mpa_mem_static.c
00000000 l    df *ABS*	00000000 mpa_mul.c
00000000 l    df *ABS*	00000000 mpa_random.c
0000abe8 l     O .bss	00000004 get_rng_array
00000000 l    df *ABS*	00000000 mpa_shift.c
00000000 l    df *ABS*	00000000 mpa_addsub.c
00000000 l    df *ABS*	00000000 mpa_cmp.c
00000000 l    df *ABS*	00000000 mpa_expmod.c
00000000 l    df *ABS*	00000000 mpa_init.c
00000000 l    df *ABS*	00000000 mpa_io.c
00006650 l     F .text	0000004c __mpa_word_to_hexstr
0000669c l     F .text	000000c8 __mpa_mpanum_to_hexstr
00006764 l     F .text	00000054 __mpa_isspace
00012bec l     O .bss	00001002 buf.4752
00000000 l    df *ABS*	00000000 mpa_modulus.c
00000000 l    df *ABS*	00000000 
00008654 l     O *ABS*	00000000 _DYNAMIC
00008530 l     O *ABS*	00000000 _GLOBAL_OFFSET_TABLE_
00006e10 l     F .text	00000010 __utee_check_access_rights_from_thumb
00006e20 l     F .text	00000010 __utee_log_from_thumb
00006e30 l     F .text	00000010 __utee_cache_operation_from_thumb
00006e40 l     F .text	00000010 __utee_cryp_random_number_generate_from_thumb
00000a30 g     F .text	00000018 utee_se_channel_transmit
000065c0 g     F .text	00000038 mpa_init_static
00003e18 g     F .text	00000048 mpa_copy
000012b8 g     F .text	00000040 TEE_BigIntConvertToFMM
0000113c g     F .text	00000030 TEE_BigIntSquareMod
00000d34 g     F .text	0000002c TEE_BigIntShiftRight
000045e8 g     F .text	00000068 mpa_get_S32
00003e98 g     F .text	00000054 mpa_highest_bit_index
00000820 g     F .text	00000018 utee_storage_obj_create
00003ca4 g     F .text	000000f8 __l_divmod
000009f4 g     F .text	00000014 utee_se_session_close
000004a0 g     F .text	00000014 utee_return
000029c0 g     F .text	00000034 malloc_reset_max_allocated
00000950 g     F .text	00000014 utee_se_service_get_readers
00001ad4 g     F .text	0000002c TEE_Realloc
00004740 g     F .text	000000e0 __mpa_div_q_r_internal_word
0000201c g     F .text	0000009c tee_user_mem_realloc
00002a5c g     F .text	00000048 malloc_get_heap_size
00005fc0 g     F .text	00000130 mpa_sub
00002288 g     F .text	000000a4 printf
00001f14 g     F .text	00000108 tee_user_mem_free
000004b4 g     F .text	00000014 utee_log
00007bc0 g     O .rodata	00000004 NR_STORED_PRIMES
000015b4 g     F .text	000000a8 TEE_InvokeTACommand
00003f3c g     F .text	0000003c mpa_can_hold
00005534 g     F .text	00000080 __mpa_abs_mul_word
000042b8 g     F .text	00000064 mpa_montgomery_mul
000038f0 g     F .text	00000030 vsnprintk
00003f78 g     F .text	00000030 mpa_parity
000030ec g     F .text	00000058 memmove
00005c48 g     F .text	0000003c __mpa_full_adder_ackum
00002fe8 g     F .text	00000040 snprintf
00000d08 g     F .text	0000002c TEE_BigIntCmpS32
00009090 g     O .data	00000004 __stack_chk_guard
00000dbc g     F .text	00000034 TEE_BigIntAdd
000004f4 g     F .text	00000014 utee_get_property_name_to_index
00006e64 g     O .rodata	00000004 ta_heap_size
00007bc4 g     O .rodata	00000004 MAX_TABULATED_PRIME
00001c20 g     F .text	0000002c utee_malloc
000005d8 g     F .text	00000018 utee_cryp_state_alloc
000007a8 g     F .text	00000018 utee_authenc_enc_final
000054f8 g     F .text	0000003c __mpa_mul_add_word_cum
00000e24 g     F .text	0000002c TEE_BigIntNeg
00004c6c g     F .text	000000b4 mpa_div
00006e70 g     O .rodata	0000000c const_one
00002f88 g     F .text	00000060 malloc_buffer_overlaps_heap
00006398 g     F .text	0000002c __mpa_abs_less_than
00001020 g     F .text	00000084 TEE_BigIntSubMod
000057e0 g     F .text	000000cc mpa_get_random
00001cd8 g     F .text	0000002c get_rng_array
00003a1c g     F .text	0000015c trace_printf
00000928 g     F .text	00000014 utee_se_service_open
000030b4 g     F .text	00000038 memcpy
00000604 g     F .text	00000014 utee_cryp_state_free
00003de0 g     F .text	00000038 mpa_wipe
000012f8 g     F .text	00000074 TEE_BigIntConvertFromFMM
00001bd8 g     F .text	0000001c TEE_Panic
00000a1c g     F .text	00000014 utee_se_channel_get_select_resp
00003bf8 g     F .text	00000018 __aeabi_uldivmod
00002250 g     F .text	00000038 puts
0000136c g     F .text	0000003c TEE_BigIntComputeFMM
00004650 g     F .text	00000034 mpa_set_word
00005990 g     F .text	00000128 mpa_shift_left
00000684 g     F .text	00000018 utee_cipher_final
00005670 g     F .text	000000ac mpa_mul
00001a3c g     F .text	0000006c TEE_GetREETime
00009004 g     O .data	0000006c ta_props
00002aa4 g     F .text	00000038 malloc
000006ec g     F .text	00000014 utee_cryp_obj_close
0000098c g     F .text	00000014 utee_se_reader_open_session
00003028 g     F .text	00000030 vsnprintf
00009000 g     O .data	00000004 trace_level
00001bf4 g     F .text	0000002c utee_get_ta_exec_id
00000cdc g     F .text	0000002c TEE_BigIntCmp
00001c4c g     F .text	0000002c utee_realloc
00006e50 g     O .rodata	00000004 ta_num_props
00002810 g     F .text	00000074 bgetr
00000790 g     F .text	00000018 utee_authenc_update_payload
00000c00 g     F .text	00000078 TEE_BigIntConvertToOctetString
00000a5c g     F .text	00000014 utee_cache_operation
00000764 g     F .text	00000018 utee_authenc_init
00000d60 g     F .text	00000030 TEE_BigIntGetBit
00006e68 g     O .rodata	00000008 trace_ext_prefix
00005c84 g     F .text	000000d4 __mpa_abs_add
000025e4 g     F .text	00000070 bgetz
000017c8 g     F .text	00000034 TEE_GetInstanceData
000018e8 g     F .text	00000064 TEE_Wait
000008d8 g     F .text	00000014 utee_storage_obj_write
00005468 g     F .text	0000005c mpa_free_static_temp_var
00002a28 g     F .text	00000034 malloc_get_allocated
0000431c g     F .text	00000288 mpa_is_prob_prime
00000a48 g     F .text	00000014 utee_se_channel_close
0000571c g     F .text	00000090 mpa_mul_word
00001b5c g     F .text	00000030 TEE_CacheFlush
00000064 g     F .text	00000044 TA_DestroyEntryPoint
0000232c g     F .text	0000004c _assert_log
00000b98 g     F .text	00000030 TEE_BigIntFMMContextSizeInU32
00004820 g     F .text	0000044c __mpa_div_q_r
00000a70 g     F .text	00000050 _TEE_MathAPI_Init
000008b0 g     F .text	00000014 utee_storage_next_enum
00003058 g     F .text	00000018 __stack_chk_fail
0000abec g     O .bss	00008000 ta_heap
0000116c g     F .text	00000064 TEE_BigIntInvMod
00000100 g     F .text	00000044 TA_CloseSessionEntryPoint
000005f0 g     F .text	00000014 utee_cryp_state_copy
00000144 g     F .text	000000a0 TA_InvokeCommandEntryPoint
00006a34 g     F .text	000000bc mpa_set_oct_str
000009dc g     F .text	00000018 utee_se_session_open_channel
000058ac g     F .text	00000070 __mpa_shift_words_left
000006d8 g     F .text	00000014 utee_cryp_obj_alloc
000005c4 g     F .text	00000014 utee_set_ta_time
000006c4 g     F .text	00000014 utee_cryp_obj_get_attr
00004068 g     F .text	00000084 __mpa_montgomery_sub_ack
00002b14 g     F .text	0000004c calloc
00001aa8 g     F .text	0000002c TEE_Malloc
00000588 g     F .text	00000014 utee_mask_cancellation
00000700 g     F .text	00000014 utee_cryp_obj_reset
00001758 g     F .text	0000003c TEE_CheckMemoryAccessRights
00003c10 g     F .text	00000094 __ul_divmod
000060f0 g     F .text	00000034 mpa_neg
00006e98 g     O .rodata	00000c38 PRIME_TABLE
000000a8 g     F .text	00000058 TA_OpenSessionEntryPoint
000050f0 g     F .text	000000cc mpa_gcd
00003e60 g     F .text	00000038 mpa_abs
0000089c g     F .text	00000014 utee_storage_start_enum
000067e4 g     F .text	000001e4 mpa_set_str
0000084c g     F .text	00000014 utee_storage_obj_rename
0000909c g     O .bss	00000004 ta_param_types
00001270 g     F .text	00000048 TEE_BigIntIsProbablePrime
00005434 g     F .text	00000034 mpa_alloc_static_temp_var
000057ac g     F .text	00000034 mpa_set_random_generator
000004dc g     F .text	00000018 utee_get_property
00000ac0 g     F .text	0000002c TEE_BigIntInit
000017fc g     F .text	0000002c TEE_MemMove
00000bc8 g     F .text	00000038 TEE_BigIntConvertFromOctetString
00003ba0 g     F .text	00000040 memchr
00001698 g     F .text	00000060 TEE_UnmaskCancellation
00006ce0 g     F .text	00000060 mpa_mul_mod
00000838 g     F .text	00000014 utee_storage_obj_del
00000900 g     F .text	00000014 utee_storage_obj_seek
000041cc g     F .text	000000ec mpa_compute_fmm_context
0000062c g     F .text	00000014 utee_hash_update
00005320 g     F .text	0000003c mpa_init_scratch_mem_sync
00000f1c g     F .text	00000080 TEE_BigIntMod
00000a08 g     F .text	00000014 utee_se_channel_select_next
00000520 g     F .text	00000014 utee_close_ta_session
00000ebc g     F .text	00000060 TEE_BigIntDiv
0000395c g     F .text	00000050 strlcpy
0000066c g     F .text	00000018 utee_cipher_update
000009c8 g     F .text	00000014 utee_se_session_get_atr
00002b60 g     F .text	00000038 realloc
00005d58 g     F .text	0000009c __mpa_abs_add_ackum
000007f0 g     F .text	00000018 utee_asymm_verify
00000e50 g     F .text	00000034 TEE_BigIntMul
00004684 g     F .text	00000034 mpa_get_word
00001854 g     F .text	0000002c TEE_MemFill
00003070 g     F .text	00000044 memcmp
00002df8 g     F .text	000000b4 malloc_add_pool
000039e8 g     F .text	00000034 trace_get_level
00000750 g     F .text	00000014 utee_cryp_random_number_generate
00000b68 g     F .text	00000030 TEE_BigIntFMMSizeInU32
00000aec g     F .text	00000034 TEE_BigIntInitFMM
000007d8 g     F .text	00000018 utee_asymm_operate
000002cc g     F .text	000001d4 __utee_entry
000011d0 g     F .text	00000064 TEE_BigIntRelativePrime
00002884 g     F .text	000000a8 bpool
000045a4 g     F .text	00000044 mpa_set_S32
000065f8 g     F .text	00000058 mpa_init_static_fmm_context
0000165c g     F .text	0000003c TEE_GetCancellationFlag
0000093c g     F .text	00000014 utee_se_service_close
00001e20 g     F .text	000000f4 tee_user_mem_alloc
00009078 g     O .data	00000008 user_mem_head
000019cc g     F .text	00000070 TEE_SetTAPersistentTime
00006124 g     F .text	000000e0 mpa_add_word
00000964 g     F .text	00000014 utee_se_reader_get_prop
00003144 g     F .text	00000034 memset
0000194c g     F .text	00000080 TEE_GetTAPersistentTime
00003b78 g     F .text	00000028 dhex_dump
000016f8 g     F .text	00000060 TEE_MaskCancellation
00005c0c g     F .text	0000003c __mpa_full_sub
000008c4 g     F .text	00000014 utee_storage_obj_read
00001c78 g     F .text	00000034 utee_calloc
00000714 g     F .text	00000014 utee_cryp_obj_populate
000063c4 g     F .text	0000006c mpa_cmp
00006d40 g     F .text	000000d0 mpa_inv_mod
00006204 g     F .text	000000e4 mpa_sub_word
000054c4 g     F .text	00000034 __mpa_mul_add_word
00005eac g     F .text	00000114 mpa_add
000064ac g     F .text	00000114 mpa_exp_mod
0000591c g     F .text	00000074 __mpa_shift_words_right
000039ac g     F .text	0000003c trace_set_level
000009b4 g     F .text	00000014 utee_se_session_is_closed
0000069c g     F .text	00000014 utee_cryp_obj_get_info
00000860 g     F .text	00000014 utee_storage_alloc_enum
00000888 g     F .text	00000014 utee_storage_reset_enum
000008ec g     F .text	00000014 utee_storage_obj_trunc
00006be8 g     F .text	00000038 mpa_mod
00006364 g     F .text	00000034 __mpa_abs_greater_than
00000ca4 g     F .text	00000038 TEE_BigIntConvertToS32
00000df0 g     F .text	00000034 TEE_BigIntSub
0000054c g     F .text	00000014 utee_get_cancellation_flag
00000618 g     F .text	00000014 utee_hash_init
000001e4 g     F .text	0000002c tahead_get_trace_level
000013f8 g     F .text	0000007c __utee_from_param
00006e7c g     O .rodata	00000010 Const_1_LShift_Base
00001474 g     F .text	0000006c __utee_to_param
00002b98 g     F .text	00000260 memalign
00000c78 g     F .text	0000002c TEE_BigIntConvertFromS32
00006c80 g     F .text	00000060 mpa_sub_mod
000006b0 g     F .text	00000014 utee_cryp_obj_restrict_usage
00002eac g     F .text	000000dc malloc_buffer_is_within_alloced
00000728 g     F .text	00000014 utee_cryp_obj_copy
00005ab8 g     F .text	00000110 mpa_shift_right
00000b20 g     F .text	00000048 TEE_BigIntInitFMMContext
0000073c g     F .text	00000014 utee_cryp_derive_key
000040ec g     F .text	000000e0 __mpa_montgomery_mul
00006af0 g     F .text	000000f8 mpa_get_oct_str
00006430 g     F .text	0000007c mpa_cmp_short
000007c0 g     F .text	00000018 utee_authenc_dec_final
000062e8 g     F .text	0000007c __mpa_abs_cmp
00000e84 g     F .text	00000038 TEE_BigIntSquare
00000020 g     F .text	00000044 TA_CreateEntryPoint
00003920 g     F .text	0000003c snprintk
00000d90 g     F .text	0000002c TEE_BigIntGetBitCount
000010a4 g     F .text	00000098 TEE_BigIntMulMod
00001bbc g     F .text	0000001c __TEE_Panic
000090a0 g     O .bss	00000020 ta_params
000055b4 g     F .text	000000bc __mpa_abs_mul
000024a8 g     F .text	0000013c bget
00001b00 g     F .text	0000002c TEE_Free
00000978 g     F .text	00000014 utee_se_reader_get_name
00001b8c g     F .text	00000030 TEE_CacheInvalidate
00000658 g     F .text	00000014 utee_cipher_init
00002378 g     F .text	00000020 _assert_break
00000f9c g     F .text	00000084 TEE_BigIntAddMod
00000874 g     F .text	00000014 utee_storage_free_enum
0000077c g     F .text	00000014 utee_authenc_update_aad
00003eec g     F .text	00000050 mpa_get_bit
0000535c g     F .text	00000038 mpa_init_scratch_mem
00001828 g     F .text	0000002c TEE_MemCompare
000031ac g     F .text	00000744 __vsnprintf
000014e0 g     F .text	00000070 TEE_OpenTASession
000004c8 g     F .text	00000014 utee_panic
000021ec g     F .text	00000038 trace_ext_puts
0000217c g     F .text	00000070 tee_user_mem_garbage
00002224 g     F .text	0000002c trace_ext_get_thread_id
00001b2c g     F .text	00000030 TEE_CacheClean
00000508 g     F .text	00000018 utee_open_ta_session
000046b8 g     F .text	00000088 __mpa_div_dword
00003d9c g     F .text	00000044 __mpa_set_unused_digits_to_zero
00006e8c g     O .rodata	0000000c const_largest_deci_base
000067b8 g     F .text	0000002c mpa_get_str_size
000020ec g     F .text	00000090 tee_user_mem_check_heap
00000640 g     F .text	00000018 utee_hash_final
00003178 g     F .text	00000034 strlen
00001234 g     F .text	0000003c TEE_BigIntComputeExtendedGcd
000051bc g     F .text	00000164 mpa_extended_gcd
00006c20 g     F .text	00000060 mpa_add_mod
00000808 g     F .text	00000018 utee_storage_obj_open
00000534 g     F .text	00000018 utee_invoke_ta_command
000069c8 g     F .text	0000006c mpa_get_str
0000059c g     F .text	00000014 utee_wait
00001cac g     F .text	0000002c utee_free
000020b8 g     F .text	00000034 tee_user_mem_mark_heap
00001880 g     F .text	00000068 TEE_GetSystemTime
00000000 g     O .ta_head	00000020 ta_head
00002654 g     F .text	000001bc brel
00005394 g     F .text	000000a0 mpa_alloc_static_temp_var_size
000005b0 g     F .text	00000014 utee_get_time
00003fd8 g     F .text	00000090 __mpa_montgomery_mul_add
00001794 g     F .text	00000034 TEE_SetInstanceData
00000574 g     F .text	00000014 utee_unmask_cancellation
00003be0 g     F .text	00000000 __aeabi_ldivmod
00000560 g     F .text	00000014 utee_check_access_rights
000009a0 g     F .text	00000014 utee_se_reader_close_sessions
00000914 g     F .text	00000014 utee_cryp_obj_generate_key
00001550 g     F .text	00000064 TEE_CloseTASession
00003fa8 g     F .text	00000030 mpa_constant_one
000029f4 g     F .text	00000034 malloc_get_max_allocated
00005bc8 g     F .text	00000044 __mpa_full_adder
00005df4 g     F .text	000000b8 __mpa_abs_sub
00002adc g     F .text	00000038 free
0000292c g     F .text	00000094 bstats



Disassembly of section .text:

00000020 <TA_CreateEntryPoint>:
TA_CreateEntryPoint():
/home/yocto/yocto-rfpf-new/yocto-rfpf/build/tmp/work/cortexa9hf-vfp-neon-ubinux-linux-gnueabi/opteekey/2.0.0+git-r0/git/ta/optee_key_ta.c:40
      20:	b51f      	push	{r0, r1, r2, r3, r4, lr}
/home/yocto/yocto-rfpf-new/yocto-rfpf/build/tmp/work/cortexa9hf-vfp-neon-ubinux-linux-gnueabi/opteekey/2.0.0+git-r0/git/ta/optee_key_ta.c:41
      22:	2129      	movs	r1, #41	; 0x29
/home/yocto/yocto-rfpf-new/yocto-rfpf/build/tmp/work/cortexa9hf-vfp-neon-ubinux-linux-gnueabi/opteekey/2.0.0+git-r0/git/ta/optee_key_ta.c:40
      24:	4b0b      	ldr	r3, [pc, #44]	; (54 <TA_CreateEntryPoint+0x34>)
      26:	4a0c      	ldr	r2, [pc, #48]	; (58 <TA_CreateEntryPoint+0x38>)
/home/yocto/yocto-rfpf-new/yocto-rfpf/build/tmp/work/cortexa9hf-vfp-neon-ubinux-linux-gnueabi/opteekey/2.0.0+git-r0/git/ta/optee_key_ta.c:41
      28:	480c      	ldr	r0, [pc, #48]	; (5c <TA_CreateEntryPoint+0x3c>)
/home/yocto/yocto-rfpf-new/yocto-rfpf/build/tmp/work/cortexa9hf-vfp-neon-ubinux-linux-gnueabi/opteekey/2.0.0+git-r0/git/ta/optee_key_ta.c:40
      2a:	447b      	add	r3, pc
      2c:	589c      	ldr	r4, [r3, r2]
/home/yocto/yocto-rfpf-new/yocto-rfpf/build/tmp/work/cortexa9hf-vfp-neon-ubinux-linux-gnueabi/opteekey/2.0.0+git-r0/git/ta/optee_key_ta.c:41
      2e:	2203      	movs	r2, #3
      30:	4478      	add	r0, pc
/home/yocto/yocto-rfpf-new/yocto-rfpf/build/tmp/work/cortexa9hf-vfp-neon-ubinux-linux-gnueabi/opteekey/2.0.0+git-r0/git/ta/optee_key_ta.c:40
      32:	6823      	ldr	r3, [r4, #0]
      34:	9303      	str	r3, [sp, #12]
/home/yocto/yocto-rfpf-new/yocto-rfpf/build/tmp/work/cortexa9hf-vfp-neon-ubinux-linux-gnueabi/opteekey/2.0.0+git-r0/git/ta/optee_key_ta.c:41
      36:	4b0a      	ldr	r3, [pc, #40]	; (60 <TA_CreateEntryPoint+0x40>)
      38:	447b      	add	r3, pc
      3a:	9300      	str	r3, [sp, #0]
      3c:	2301      	movs	r3, #1
      3e:	f003 fced 	bl	3a1c <trace_printf>
/home/yocto/yocto-rfpf-new/yocto-rfpf/build/tmp/work/cortexa9hf-vfp-neon-ubinux-linux-gnueabi/opteekey/2.0.0+git-r0/git/ta/optee_key_ta.c:43
      42:	9a03      	ldr	r2, [sp, #12]
      44:	2000      	movs	r0, #0
      46:	6823      	ldr	r3, [r4, #0]
      48:	429a      	cmp	r2, r3
      4a:	d001      	beq.n	50 <TA_CreateEntryPoint+0x30>
      4c:	f003 f804 	bl	3058 <__stack_chk_fail>
      50:	b004      	add	sp, #16
      52:	bd10      	pop	{r4, pc}
      54:	00008502 	.word	0x00008502
      58:	0000000c 	.word	0x0000000c
      5c:	00007b94 	.word	0x00007b94
      60:	00007bf2 	.word	0x00007bf2

00000064 <TA_DestroyEntryPoint>:
TA_DestroyEntryPoint():
/home/yocto/yocto-rfpf-new/yocto-rfpf/build/tmp/work/cortexa9hf-vfp-neon-ubinux-linux-gnueabi/opteekey/2.0.0+git-r0/git/ta/optee_key_ta.c:50
      64:	b51f      	push	{r0, r1, r2, r3, r4, lr}
/home/yocto/yocto-rfpf-new/yocto-rfpf/build/tmp/work/cortexa9hf-vfp-neon-ubinux-linux-gnueabi/opteekey/2.0.0+git-r0/git/ta/optee_key_ta.c:51
      66:	2133      	movs	r1, #51	; 0x33
/home/yocto/yocto-rfpf-new/yocto-rfpf/build/tmp/work/cortexa9hf-vfp-neon-ubinux-linux-gnueabi/opteekey/2.0.0+git-r0/git/ta/optee_key_ta.c:50
      68:	4b0b      	ldr	r3, [pc, #44]	; (98 <TA_DestroyEntryPoint+0x34>)
      6a:	4a0c      	ldr	r2, [pc, #48]	; (9c <TA_DestroyEntryPoint+0x38>)
/home/yocto/yocto-rfpf-new/yocto-rfpf/build/tmp/work/cortexa9hf-vfp-neon-ubinux-linux-gnueabi/opteekey/2.0.0+git-r0/git/ta/optee_key_ta.c:51
      6c:	480c      	ldr	r0, [pc, #48]	; (a0 <TA_DestroyEntryPoint+0x3c>)
/home/yocto/yocto-rfpf-new/yocto-rfpf/build/tmp/work/cortexa9hf-vfp-neon-ubinux-linux-gnueabi/opteekey/2.0.0+git-r0/git/ta/optee_key_ta.c:50
      6e:	447b      	add	r3, pc
      70:	589c      	ldr	r4, [r3, r2]
/home/yocto/yocto-rfpf-new/yocto-rfpf/build/tmp/work/cortexa9hf-vfp-neon-ubinux-linux-gnueabi/opteekey/2.0.0+git-r0/git/ta/optee_key_ta.c:51
      72:	2203      	movs	r2, #3
      74:	4478      	add	r0, pc
      76:	3014      	adds	r0, #20
/home/yocto/yocto-rfpf-new/yocto-rfpf/build/tmp/work/cortexa9hf-vfp-neon-ubinux-linux-gnueabi/opteekey/2.0.0+git-r0/git/ta/optee_key_ta.c:50
      78:	6823      	ldr	r3, [r4, #0]
      7a:	9303      	str	r3, [sp, #12]
/home/yocto/yocto-rfpf-new/yocto-rfpf/build/tmp/work/cortexa9hf-vfp-neon-ubinux-linux-gnueabi/opteekey/2.0.0+git-r0/git/ta/optee_key_ta.c:51
      7c:	4b09      	ldr	r3, [pc, #36]	; (a4 <TA_DestroyEntryPoint+0x40>)
      7e:	447b      	add	r3, pc
      80:	9300      	str	r3, [sp, #0]
      82:	2301      	movs	r3, #1
      84:	f003 fcca 	bl	3a1c <trace_printf>
/home/yocto/yocto-rfpf-new/yocto-rfpf/build/tmp/work/cortexa9hf-vfp-neon-ubinux-linux-gnueabi/opteekey/2.0.0+git-r0/git/ta/optee_key_ta.c:52
      88:	9a03      	ldr	r2, [sp, #12]
      8a:	6823      	ldr	r3, [r4, #0]
      8c:	429a      	cmp	r2, r3
      8e:	d001      	beq.n	94 <TA_DestroyEntryPoint+0x30>
      90:	f002 ffe2 	bl	3058 <__stack_chk_fail>
      94:	b004      	add	sp, #16
      96:	bd10      	pop	{r4, pc}
      98:	000084be 	.word	0x000084be
      9c:	0000000c 	.word	0x0000000c
      a0:	00007b50 	.word	0x00007b50
      a4:	00007bac 	.word	0x00007bac

000000a8 <TA_OpenSessionEntryPoint>:
TA_OpenSessionEntryPoint():
/home/yocto/yocto-rfpf-new/yocto-rfpf/build/tmp/work/cortexa9hf-vfp-neon-ubinux-linux-gnueabi/opteekey/2.0.0+git-r0/git/ta/optee_key_ta.c:63
      a8:	4b11      	ldr	r3, [pc, #68]	; (f0 <TA_OpenSessionEntryPoint+0x48>)
      aa:	4a12      	ldr	r2, [pc, #72]	; (f4 <TA_OpenSessionEntryPoint+0x4c>)
      ac:	b530      	push	{r4, r5, lr}
      ae:	b085      	sub	sp, #20
/home/yocto/yocto-rfpf-new/yocto-rfpf/build/tmp/work/cortexa9hf-vfp-neon-ubinux-linux-gnueabi/opteekey/2.0.0+git-r0/git/ta/optee_key_ta.c:68
      b0:	4604      	mov	r4, r0
/home/yocto/yocto-rfpf-new/yocto-rfpf/build/tmp/work/cortexa9hf-vfp-neon-ubinux-linux-gnueabi/opteekey/2.0.0+git-r0/git/ta/optee_key_ta.c:63
      b2:	447b      	add	r3, pc
      b4:	589b      	ldr	r3, [r3, r2]
      b6:	681a      	ldr	r2, [r3, #0]
      b8:	461d      	mov	r5, r3
      ba:	9203      	str	r2, [sp, #12]
/home/yocto/yocto-rfpf-new/yocto-rfpf/build/tmp/work/cortexa9hf-vfp-neon-ubinux-linux-gnueabi/opteekey/2.0.0+git-r0/git/ta/optee_key_ta.c:68
      bc:	b960      	cbnz	r0, d8 <TA_OpenSessionEntryPoint+0x30>
/home/yocto/yocto-rfpf-new/yocto-rfpf/build/tmp/work/cortexa9hf-vfp-neon-ubinux-linux-gnueabi/opteekey/2.0.0+git-r0/git/ta/optee_key_ta.c:79
      be:	4b0e      	ldr	r3, [pc, #56]	; (f8 <TA_OpenSessionEntryPoint+0x50>)
      c0:	2203      	movs	r2, #3
      c2:	214f      	movs	r1, #79	; 0x4f
      c4:	480d      	ldr	r0, [pc, #52]	; (fc <TA_OpenSessionEntryPoint+0x54>)
      c6:	447b      	add	r3, pc
      c8:	4478      	add	r0, pc
      ca:	3029      	adds	r0, #41	; 0x29
      cc:	9300      	str	r3, [sp, #0]
      ce:	2301      	movs	r3, #1
      d0:	f003 fca4 	bl	3a1c <trace_printf>
/home/yocto/yocto-rfpf-new/yocto-rfpf/build/tmp/work/cortexa9hf-vfp-neon-ubinux-linux-gnueabi/opteekey/2.0.0+git-r0/git/ta/optee_key_ta.c:82
      d4:	4620      	mov	r0, r4
      d6:	e000      	b.n	da <TA_OpenSessionEntryPoint+0x32>
/home/yocto/yocto-rfpf-new/yocto-rfpf/build/tmp/work/cortexa9hf-vfp-neon-ubinux-linux-gnueabi/opteekey/2.0.0+git-r0/git/ta/optee_key_ta.c:69
      d8:	4804      	ldr	r0, [pc, #16]	; (ec <TA_OpenSessionEntryPoint+0x44>)
/home/yocto/yocto-rfpf-new/yocto-rfpf/build/tmp/work/cortexa9hf-vfp-neon-ubinux-linux-gnueabi/opteekey/2.0.0+git-r0/git/ta/optee_key_ta.c:83
      da:	9a03      	ldr	r2, [sp, #12]
      dc:	682b      	ldr	r3, [r5, #0]
      de:	429a      	cmp	r2, r3
      e0:	d001      	beq.n	e6 <TA_OpenSessionEntryPoint+0x3e>
      e2:	f002 ffb9 	bl	3058 <__stack_chk_fail>
      e6:	b005      	add	sp, #20
      e8:	bd30      	pop	{r4, r5, pc}
      ea:	bf00      	nop
      ec:	ffff0006 	.word	0xffff0006
      f0:	0000847a 	.word	0x0000847a
      f4:	0000000c 	.word	0x0000000c
      f8:	00007b74 	.word	0x00007b74
      fc:	00007afc 	.word	0x00007afc

00000100 <TA_CloseSessionEntryPoint>:
TA_CloseSessionEntryPoint():
/home/yocto/yocto-rfpf-new/yocto-rfpf/build/tmp/work/cortexa9hf-vfp-neon-ubinux-linux-gnueabi/opteekey/2.0.0+git-r0/git/ta/optee_key_ta.c:90
     100:	b51f      	push	{r0, r1, r2, r3, r4, lr}
/home/yocto/yocto-rfpf-new/yocto-rfpf/build/tmp/work/cortexa9hf-vfp-neon-ubinux-linux-gnueabi/opteekey/2.0.0+git-r0/git/ta/optee_key_ta.c:92
     102:	215c      	movs	r1, #92	; 0x5c
/home/yocto/yocto-rfpf-new/yocto-rfpf/build/tmp/work/cortexa9hf-vfp-neon-ubinux-linux-gnueabi/opteekey/2.0.0+git-r0/git/ta/optee_key_ta.c:90
     104:	4b0b      	ldr	r3, [pc, #44]	; (134 <TA_CloseSessionEntryPoint+0x34>)
     106:	4a0c      	ldr	r2, [pc, #48]	; (138 <TA_CloseSessionEntryPoint+0x38>)
/home/yocto/yocto-rfpf-new/yocto-rfpf/build/tmp/work/cortexa9hf-vfp-neon-ubinux-linux-gnueabi/opteekey/2.0.0+git-r0/git/ta/optee_key_ta.c:92
     108:	480c      	ldr	r0, [pc, #48]	; (13c <TA_CloseSessionEntryPoint+0x3c>)
/home/yocto/yocto-rfpf-new/yocto-rfpf/build/tmp/work/cortexa9hf-vfp-neon-ubinux-linux-gnueabi/opteekey/2.0.0+git-r0/git/ta/optee_key_ta.c:90
     10a:	447b      	add	r3, pc
     10c:	589c      	ldr	r4, [r3, r2]
/home/yocto/yocto-rfpf-new/yocto-rfpf/build/tmp/work/cortexa9hf-vfp-neon-ubinux-linux-gnueabi/opteekey/2.0.0+git-r0/git/ta/optee_key_ta.c:92
     10e:	2203      	movs	r2, #3
     110:	4478      	add	r0, pc
     112:	3042      	adds	r0, #66	; 0x42
/home/yocto/yocto-rfpf-new/yocto-rfpf/build/tmp/work/cortexa9hf-vfp-neon-ubinux-linux-gnueabi/opteekey/2.0.0+git-r0/git/ta/optee_key_ta.c:90
     114:	6823      	ldr	r3, [r4, #0]
     116:	9303      	str	r3, [sp, #12]
/home/yocto/yocto-rfpf-new/yocto-rfpf/build/tmp/work/cortexa9hf-vfp-neon-ubinux-linux-gnueabi/opteekey/2.0.0+git-r0/git/ta/optee_key_ta.c:92
     118:	4b09      	ldr	r3, [pc, #36]	; (140 <TA_CloseSessionEntryPoint+0x40>)
     11a:	447b      	add	r3, pc
     11c:	9300      	str	r3, [sp, #0]
     11e:	2301      	movs	r3, #1
     120:	f003 fc7c 	bl	3a1c <trace_printf>
/home/yocto/yocto-rfpf-new/yocto-rfpf/build/tmp/work/cortexa9hf-vfp-neon-ubinux-linux-gnueabi/opteekey/2.0.0+git-r0/git/ta/optee_key_ta.c:93
     124:	9a03      	ldr	r2, [sp, #12]
     126:	6823      	ldr	r3, [r4, #0]
     128:	429a      	cmp	r2, r3
     12a:	d001      	beq.n	130 <TA_CloseSessionEntryPoint+0x30>
     12c:	f002 ff94 	bl	3058 <__stack_chk_fail>
     130:	b004      	add	sp, #16
     132:	bd10      	pop	{r4, pc}
     134:	00008422 	.word	0x00008422
     138:	0000000c 	.word	0x0000000c
     13c:	00007ab4 	.word	0x00007ab4
     140:	00007b2e 	.word	0x00007b2e

00000144 <TA_InvokeCommandEntryPoint>:
TA_InvokeCommandEntryPoint():
/home/yocto/yocto-rfpf-new/yocto-rfpf/build/tmp/work/cortexa9hf-vfp-neon-ubinux-linux-gnueabi/opteekey/2.0.0+git-r0/git/ta/optee_key_ta.c:121
     144:	e92d 41ff 	stmdb	sp!, {r0, r1, r2, r3, r4, r5, r6, r7, r8, lr}
     148:	4698      	mov	r8, r3
     14a:	4b20      	ldr	r3, [pc, #128]	; (1cc <TA_InvokeCommandEntryPoint+0x88>)
     14c:	4617      	mov	r7, r2
/home/yocto/yocto-rfpf-new/yocto-rfpf/build/tmp/work/cortexa9hf-vfp-neon-ubinux-linux-gnueabi/opteekey/2.0.0+git-r0/git/ta/optee_key_ta.c:124
     14e:	460c      	mov	r4, r1
/home/yocto/yocto-rfpf-new/yocto-rfpf/build/tmp/work/cortexa9hf-vfp-neon-ubinux-linux-gnueabi/opteekey/2.0.0+git-r0/git/ta/optee_key_ta.c:121
     150:	4a1f      	ldr	r2, [pc, #124]	; (1d0 <TA_InvokeCommandEntryPoint+0x8c>)
     152:	447b      	add	r3, pc
     154:	589b      	ldr	r3, [r3, r2]
     156:	681a      	ldr	r2, [r3, #0]
     158:	461e      	mov	r6, r3
     15a:	9203      	str	r2, [sp, #12]
/home/yocto/yocto-rfpf-new/yocto-rfpf/build/tmp/work/cortexa9hf-vfp-neon-ubinux-linux-gnueabi/opteekey/2.0.0+git-r0/git/ta/optee_key_ta.c:124
     15c:	bb51      	cbnz	r1, 1b4 <TA_InvokeCommandEntryPoint+0x70>
inc_value():
/home/yocto/yocto-rfpf-new/yocto-rfpf/build/tmp/work/cortexa9hf-vfp-neon-ubinux-linux-gnueabi/opteekey/2.0.0+git-r0/git/ta/optee_key_ta.c:103
     15e:	4d1d      	ldr	r5, [pc, #116]	; (1d4 <TA_InvokeCommandEntryPoint+0x90>)
     160:	2203      	movs	r2, #3
     162:	2167      	movs	r1, #103	; 0x67
     164:	4b1c      	ldr	r3, [pc, #112]	; (1d8 <TA_InvokeCommandEntryPoint+0x94>)
     166:	447d      	add	r5, pc
     168:	447b      	add	r3, pc
     16a:	355c      	adds	r5, #92	; 0x5c
     16c:	4628      	mov	r0, r5
     16e:	9300      	str	r3, [sp, #0]
     170:	2301      	movs	r3, #1
     172:	f003 fc53 	bl	3a1c <trace_printf>
/home/yocto/yocto-rfpf-new/yocto-rfpf/build/tmp/work/cortexa9hf-vfp-neon-ubinux-linux-gnueabi/opteekey/2.0.0+git-r0/git/ta/optee_key_ta.c:104
     176:	2f03      	cmp	r7, #3
     178:	d11c      	bne.n	1b4 <TA_InvokeCommandEntryPoint+0x70>
/home/yocto/yocto-rfpf-new/yocto-rfpf/build/tmp/work/cortexa9hf-vfp-neon-ubinux-linux-gnueabi/opteekey/2.0.0+git-r0/git/ta/optee_key_ta.c:107
     17a:	f8d8 3000 	ldr.w	r3, [r8]
     17e:	463a      	mov	r2, r7
     180:	216b      	movs	r1, #107	; 0x6b
     182:	4628      	mov	r0, r5
     184:	9301      	str	r3, [sp, #4]
     186:	4b15      	ldr	r3, [pc, #84]	; (1dc <TA_InvokeCommandEntryPoint+0x98>)
     188:	447b      	add	r3, pc
     18a:	9300      	str	r3, [sp, #0]
     18c:	2301      	movs	r3, #1
     18e:	f003 fc45 	bl	3a1c <trace_printf>
/home/yocto/yocto-rfpf-new/yocto-rfpf/build/tmp/work/cortexa9hf-vfp-neon-ubinux-linux-gnueabi/opteekey/2.0.0+git-r0/git/ta/optee_key_ta.c:108
     192:	f8d8 3000 	ldr.w	r3, [r8]
/home/yocto/yocto-rfpf-new/yocto-rfpf/build/tmp/work/cortexa9hf-vfp-neon-ubinux-linux-gnueabi/opteekey/2.0.0+git-r0/git/ta/optee_key_ta.c:109
     196:	4628      	mov	r0, r5
     198:	463a      	mov	r2, r7
     19a:	216d      	movs	r1, #109	; 0x6d
/home/yocto/yocto-rfpf-new/yocto-rfpf/build/tmp/work/cortexa9hf-vfp-neon-ubinux-linux-gnueabi/opteekey/2.0.0+git-r0/git/ta/optee_key_ta.c:108
     19c:	3301      	adds	r3, #1
     19e:	f8c8 3000 	str.w	r3, [r8]
/home/yocto/yocto-rfpf-new/yocto-rfpf/build/tmp/work/cortexa9hf-vfp-neon-ubinux-linux-gnueabi/opteekey/2.0.0+git-r0/git/ta/optee_key_ta.c:109
     1a2:	9301      	str	r3, [sp, #4]
     1a4:	4b0e      	ldr	r3, [pc, #56]	; (1e0 <TA_InvokeCommandEntryPoint+0x9c>)
     1a6:	447b      	add	r3, pc
     1a8:	9300      	str	r3, [sp, #0]
     1aa:	2301      	movs	r3, #1
     1ac:	f003 fc36 	bl	3a1c <trace_printf>
/home/yocto/yocto-rfpf-new/yocto-rfpf/build/tmp/work/cortexa9hf-vfp-neon-ubinux-linux-gnueabi/opteekey/2.0.0+git-r0/git/ta/optee_key_ta.c:110
     1b0:	4620      	mov	r0, r4
     1b2:	e000      	b.n	1b6 <TA_InvokeCommandEntryPoint+0x72>
/home/yocto/yocto-rfpf-new/yocto-rfpf/build/tmp/work/cortexa9hf-vfp-neon-ubinux-linux-gnueabi/opteekey/2.0.0+git-r0/git/ta/optee_key_ta.c:105
     1b4:	4804      	ldr	r0, [pc, #16]	; (1c8 <TA_InvokeCommandEntryPoint+0x84>)
TA_InvokeCommandEntryPoint():
/home/yocto/yocto-rfpf-new/yocto-rfpf/build/tmp/work/cortexa9hf-vfp-neon-ubinux-linux-gnueabi/opteekey/2.0.0+git-r0/git/ta/optee_key_ta.c:142
     1b6:	9a03      	ldr	r2, [sp, #12]
     1b8:	6833      	ldr	r3, [r6, #0]
     1ba:	429a      	cmp	r2, r3
     1bc:	d001      	beq.n	1c2 <TA_InvokeCommandEntryPoint+0x7e>
     1be:	f002 ff4b 	bl	3058 <__stack_chk_fail>
     1c2:	b004      	add	sp, #16
     1c4:	e8bd 81f0 	ldmia.w	sp!, {r4, r5, r6, r7, r8, pc}
     1c8:	ffff0006 	.word	0xffff0006
     1cc:	000083da 	.word	0x000083da
     1d0:	0000000c 	.word	0x0000000c
     1d4:	00007a5e 	.word	0x00007a5e
     1d8:	00007ac2 	.word	0x00007ac2
     1dc:	00007aca 	.word	0x00007aca
     1e0:	00007ac2 	.word	0x00007ac2

000001e4 <tahead_get_trace_level>:
tahead_get_trace_level():
/home/yocto/yocto-rfpf-new/yocto-rfpf/build/tmp/sysroots/rfpf-armv7/usr/include/optee/export-user_ta/src/user_ta_header.c:128
     1e4:	4b08      	ldr	r3, [pc, #32]	; (208 <tahead_get_trace_level+0x24>)
     1e6:	b507      	push	{r0, r1, r2, lr}
/home/yocto/yocto-rfpf-new/yocto-rfpf/build/tmp/sysroots/rfpf-armv7/usr/include/optee/export-user_ta/src/user_ta_header.c:133
     1e8:	2004      	movs	r0, #4
/home/yocto/yocto-rfpf-new/yocto-rfpf/build/tmp/sysroots/rfpf-armv7/usr/include/optee/export-user_ta/src/user_ta_header.c:128
     1ea:	4a08      	ldr	r2, [pc, #32]	; (20c <tahead_get_trace_level+0x28>)
     1ec:	447b      	add	r3, pc
     1ee:	589b      	ldr	r3, [r3, r2]
     1f0:	681a      	ldr	r2, [r3, #0]
     1f2:	9201      	str	r2, [sp, #4]
/home/yocto/yocto-rfpf-new/yocto-rfpf/build/tmp/sysroots/rfpf-armv7/usr/include/optee/export-user_ta/src/user_ta_header.c:133
     1f4:	9a01      	ldr	r2, [sp, #4]
     1f6:	681b      	ldr	r3, [r3, #0]
     1f8:	429a      	cmp	r2, r3
     1fa:	d001      	beq.n	200 <tahead_get_trace_level+0x1c>
     1fc:	f002 ff2c 	bl	3058 <__stack_chk_fail>
     200:	b003      	add	sp, #12
     202:	f85d fb04 	ldr.w	pc, [sp], #4
     206:	bf00      	nop
     208:	00008340 	.word	0x00008340
     20c:	0000000c 	.word	0x0000000c

00000210 <ta_header_get_session>:
ta_header_get_session():
/home/yocto/yocto-rfpf-new/yocto-rfpf/build/tmp/work/cortexa9hf-vfp-neon-ubinux-linux-gnueabi/optee-os/2.0.0+gitAUTOINC+ca6737b41c-r0/git/lib/libutee/arch/arm/user_ta_entry.c:72
     210:	4b0c      	ldr	r3, [pc, #48]	; (244 <ta_header_get_session+0x34>)
     212:	b507      	push	{r0, r1, r2, lr}
     214:	4a0c      	ldr	r2, [pc, #48]	; (248 <ta_header_get_session+0x38>)
     216:	447b      	add	r3, pc
     218:	589a      	ldr	r2, [r3, r2]
     21a:	6813      	ldr	r3, [r2, #0]
     21c:	9301      	str	r3, [sp, #4]
/home/yocto/yocto-rfpf-new/yocto-rfpf/build/tmp/work/cortexa9hf-vfp-neon-ubinux-linux-gnueabi/optee-os/2.0.0+gitAUTOINC+ca6737b41c-r0/git/lib/libutee/arch/arm/user_ta_entry.c:75
     21e:	4b0b      	ldr	r3, [pc, #44]	; (24c <ta_header_get_session+0x3c>)
     220:	447b      	add	r3, pc
     222:	681b      	ldr	r3, [r3, #0]
/home/yocto/yocto-rfpf-new/yocto-rfpf/build/tmp/work/cortexa9hf-vfp-neon-ubinux-linux-gnueabi/optee-os/2.0.0+gitAUTOINC+ca6737b41c-r0/git/lib/libutee/arch/arm/user_ta_entry.c:75 (discriminator 1)
     224:	b123      	cbz	r3, 230 <ta_header_get_session+0x20>
/home/yocto/yocto-rfpf-new/yocto-rfpf/build/tmp/work/cortexa9hf-vfp-neon-ubinux-linux-gnueabi/optee-os/2.0.0+gitAUTOINC+ca6737b41c-r0/git/lib/libutee/arch/arm/user_ta_entry.c:76
     226:	6819      	ldr	r1, [r3, #0]
     228:	4281      	cmp	r1, r0
     22a:	d001      	beq.n	230 <ta_header_get_session+0x20>
/home/yocto/yocto-rfpf-new/yocto-rfpf/build/tmp/work/cortexa9hf-vfp-neon-ubinux-linux-gnueabi/optee-os/2.0.0+gitAUTOINC+ca6737b41c-r0/git/lib/libutee/arch/arm/user_ta_entry.c:75 (discriminator 2)
     22c:	689b      	ldr	r3, [r3, #8]
     22e:	e7f9      	b.n	224 <ta_header_get_session+0x14>
/home/yocto/yocto-rfpf-new/yocto-rfpf/build/tmp/work/cortexa9hf-vfp-neon-ubinux-linux-gnueabi/optee-os/2.0.0+gitAUTOINC+ca6737b41c-r0/git/lib/libutee/arch/arm/user_ta_entry.c:80
     230:	9901      	ldr	r1, [sp, #4]
     232:	4618      	mov	r0, r3
     234:	6813      	ldr	r3, [r2, #0]
     236:	4299      	cmp	r1, r3
     238:	d001      	beq.n	23e <ta_header_get_session+0x2e>
     23a:	f002 ff0d 	bl	3058 <__stack_chk_fail>
     23e:	b003      	add	sp, #12
     240:	f85d fb04 	ldr.w	pc, [sp], #4
     244:	00008316 	.word	0x00008316
     248:	0000000c 	.word	0x0000000c
     24c:	00008e4c 	.word	0x00008e4c

00000250 <ta_header_remove_session>:
ta_header_remove_session():
/home/yocto/yocto-rfpf-new/yocto-rfpf/build/tmp/work/cortexa9hf-vfp-neon-ubinux-linux-gnueabi/optee-os/2.0.0+gitAUTOINC+ca6737b41c-r0/git/lib/libutee/arch/arm/user_ta_entry.c:118
     250:	4b19      	ldr	r3, [pc, #100]	; (2b8 <ta_header_remove_session+0x68>)
     252:	4a1a      	ldr	r2, [pc, #104]	; (2bc <ta_header_remove_session+0x6c>)
     254:	b513      	push	{r0, r1, r4, lr}
     256:	447b      	add	r3, pc
     258:	589c      	ldr	r4, [r3, r2]
     25a:	6823      	ldr	r3, [r4, #0]
     25c:	9301      	str	r3, [sp, #4]
/home/yocto/yocto-rfpf-new/yocto-rfpf/build/tmp/work/cortexa9hf-vfp-neon-ubinux-linux-gnueabi/optee-os/2.0.0+gitAUTOINC+ca6737b41c-r0/git/lib/libutee/arch/arm/user_ta_entry.c:121
     25e:	4b18      	ldr	r3, [pc, #96]	; (2c0 <ta_header_remove_session+0x70>)
     260:	447b      	add	r3, pc
     262:	681b      	ldr	r3, [r3, #0]
/home/yocto/yocto-rfpf-new/yocto-rfpf/build/tmp/work/cortexa9hf-vfp-neon-ubinux-linux-gnueabi/optee-os/2.0.0+gitAUTOINC+ca6737b41c-r0/git/lib/libutee/arch/arm/user_ta_entry.c:121 (discriminator 1)
     264:	b303      	cbz	r3, 2a8 <ta_header_remove_session+0x58>
/home/yocto/yocto-rfpf-new/yocto-rfpf/build/tmp/work/cortexa9hf-vfp-neon-ubinux-linux-gnueabi/optee-os/2.0.0+gitAUTOINC+ca6737b41c-r0/git/lib/libutee/arch/arm/user_ta_entry.c:122
     266:	681a      	ldr	r2, [r3, #0]
     268:	4282      	cmp	r2, r0
     26a:	689a      	ldr	r2, [r3, #8]
     26c:	d11a      	bne.n	2a4 <ta_header_remove_session+0x54>
     26e:	68d9      	ldr	r1, [r3, #12]
/home/yocto/yocto-rfpf-new/yocto-rfpf/build/tmp/work/cortexa9hf-vfp-neon-ubinux-linux-gnueabi/optee-os/2.0.0+gitAUTOINC+ca6737b41c-r0/git/lib/libutee/arch/arm/user_ta_entry.c:123
     270:	b10a      	cbz	r2, 276 <ta_header_remove_session+0x26>
/home/yocto/yocto-rfpf-new/yocto-rfpf/build/tmp/work/cortexa9hf-vfp-neon-ubinux-linux-gnueabi/optee-os/2.0.0+gitAUTOINC+ca6737b41c-r0/git/lib/libutee/arch/arm/user_ta_entry.c:123 (discriminator 1)
     272:	60d1      	str	r1, [r2, #12]
     274:	e002      	b.n	27c <ta_header_remove_session+0x2c>
/home/yocto/yocto-rfpf-new/yocto-rfpf/build/tmp/work/cortexa9hf-vfp-neon-ubinux-linux-gnueabi/optee-os/2.0.0+gitAUTOINC+ca6737b41c-r0/git/lib/libutee/arch/arm/user_ta_entry.c:123 (discriminator 2)
     276:	4813      	ldr	r0, [pc, #76]	; (2c4 <ta_header_remove_session+0x74>)
     278:	4478      	add	r0, pc
     27a:	6041      	str	r1, [r0, #4]
/home/yocto/yocto-rfpf-new/yocto-rfpf/build/tmp/work/cortexa9hf-vfp-neon-ubinux-linux-gnueabi/optee-os/2.0.0+gitAUTOINC+ca6737b41c-r0/git/lib/libutee/arch/arm/user_ta_entry.c:123 (discriminator 4)
     27c:	68d9      	ldr	r1, [r3, #12]
/home/yocto/yocto-rfpf-new/yocto-rfpf/build/tmp/work/cortexa9hf-vfp-neon-ubinux-linux-gnueabi/optee-os/2.0.0+gitAUTOINC+ca6737b41c-r0/git/lib/libutee/arch/arm/user_ta_entry.c:124 (discriminator 4)
     27e:	4618      	mov	r0, r3
/home/yocto/yocto-rfpf-new/yocto-rfpf/build/tmp/work/cortexa9hf-vfp-neon-ubinux-linux-gnueabi/optee-os/2.0.0+gitAUTOINC+ca6737b41c-r0/git/lib/libutee/arch/arm/user_ta_entry.c:123 (discriminator 4)
     280:	600a      	str	r2, [r1, #0]
/home/yocto/yocto-rfpf-new/yocto-rfpf/build/tmp/work/cortexa9hf-vfp-neon-ubinux-linux-gnueabi/optee-os/2.0.0+gitAUTOINC+ca6737b41c-r0/git/lib/libutee/arch/arm/user_ta_entry.c:124 (discriminator 4)
     282:	f001 fc3d 	bl	1b00 <TEE_Free>
/home/yocto/yocto-rfpf-new/yocto-rfpf/build/tmp/work/cortexa9hf-vfp-neon-ubinux-linux-gnueabi/optee-os/2.0.0+gitAUTOINC+ca6737b41c-r0/git/lib/libutee/arch/arm/user_ta_entry.c:126 (discriminator 4)
     286:	4a10      	ldr	r2, [pc, #64]	; (2c8 <ta_header_remove_session+0x78>)
     288:	447a      	add	r2, pc
     28a:	6813      	ldr	r3, [r2, #0]
     28c:	3b01      	subs	r3, #1
     28e:	6013      	str	r3, [r2, #0]
/home/yocto/yocto-rfpf-new/yocto-rfpf/build/tmp/work/cortexa9hf-vfp-neon-ubinux-linux-gnueabi/optee-os/2.0.0+gitAUTOINC+ca6737b41c-r0/git/lib/libutee/arch/arm/user_ta_entry.c:127 (discriminator 4)
     290:	b953      	cbnz	r3, 2a8 <ta_header_remove_session+0x58>
/home/yocto/yocto-rfpf-new/yocto-rfpf/build/tmp/work/cortexa9hf-vfp-neon-ubinux-linux-gnueabi/optee-os/2.0.0+gitAUTOINC+ca6737b41c-r0/git/lib/libutee/arch/arm/user_ta_entry.c:128
     292:	9a01      	ldr	r2, [sp, #4]
     294:	6823      	ldr	r3, [r4, #0]
     296:	429a      	cmp	r2, r3
     298:	d10a      	bne.n	2b0 <ta_header_remove_session+0x60>
/home/yocto/yocto-rfpf-new/yocto-rfpf/build/tmp/work/cortexa9hf-vfp-neon-ubinux-linux-gnueabi/optee-os/2.0.0+gitAUTOINC+ca6737b41c-r0/git/lib/libutee/arch/arm/user_ta_entry.c:133
     29a:	b002      	add	sp, #8
     29c:	e8bd 4010 	ldmia.w	sp!, {r4, lr}
/home/yocto/yocto-rfpf-new/yocto-rfpf/build/tmp/work/cortexa9hf-vfp-neon-ubinux-linux-gnueabi/optee-os/2.0.0+gitAUTOINC+ca6737b41c-r0/git/lib/libutee/arch/arm/user_ta_entry.c:128
     2a0:	f7ff bee0 	b.w	64 <TA_DestroyEntryPoint>
/home/yocto/yocto-rfpf-new/yocto-rfpf/build/tmp/work/cortexa9hf-vfp-neon-ubinux-linux-gnueabi/optee-os/2.0.0+gitAUTOINC+ca6737b41c-r0/git/lib/libutee/arch/arm/user_ta_entry.c:121 (discriminator 2)
     2a4:	4613      	mov	r3, r2
     2a6:	e7dd      	b.n	264 <ta_header_remove_session+0x14>
/home/yocto/yocto-rfpf-new/yocto-rfpf/build/tmp/work/cortexa9hf-vfp-neon-ubinux-linux-gnueabi/optee-os/2.0.0+gitAUTOINC+ca6737b41c-r0/git/lib/libutee/arch/arm/user_ta_entry.c:133
     2a8:	9a01      	ldr	r2, [sp, #4]
     2aa:	6823      	ldr	r3, [r4, #0]
     2ac:	429a      	cmp	r2, r3
     2ae:	d001      	beq.n	2b4 <ta_header_remove_session+0x64>
     2b0:	f002 fed2 	bl	3058 <__stack_chk_fail>
     2b4:	b002      	add	sp, #8
     2b6:	bd10      	pop	{r4, pc}
     2b8:	000082d6 	.word	0x000082d6
     2bc:	0000000c 	.word	0x0000000c
     2c0:	00008e0c 	.word	0x00008e0c
     2c4:	00008df4 	.word	0x00008df4
     2c8:	00008e08 	.word	0x00008e08

000002cc <__utee_entry>:
__utee_entry():
/home/yocto/yocto-rfpf-new/yocto-rfpf/build/tmp/work/cortexa9hf-vfp-neon-ubinux-linux-gnueabi/optee-os/2.0.0+gitAUTOINC+ca6737b41c-r0/git/lib/libutee/arch/arm/user_ta_entry.c:200
     2cc:	f8df 81a4 	ldr.w	r8, [pc, #420]	; 474 <__utee_entry+0x1a8>
     2d0:	4699      	mov	r9, r3
/home/yocto/yocto-rfpf-new/yocto-rfpf/build/tmp/work/cortexa9hf-vfp-neon-ubinux-linux-gnueabi/optee-os/2.0.0+gitAUTOINC+ca6737b41c-r0/git/lib/libutee/arch/arm/user_ta_entry.c:203
     2d2:	2801      	cmp	r0, #1
/home/yocto/yocto-rfpf-new/yocto-rfpf/build/tmp/work/cortexa9hf-vfp-neon-ubinux-linux-gnueabi/optee-os/2.0.0+gitAUTOINC+ca6737b41c-r0/git/lib/libutee/arch/arm/user_ta_entry.c:200
     2d4:	4b68      	ldr	r3, [pc, #416]	; (478 <__utee_entry+0x1ac>)
     2d6:	4616      	mov	r6, r2
     2d8:	b580      	push	{r7, lr}
     2da:	b08e      	sub	sp, #56	; 0x38
     2dc:	460f      	mov	r7, r1
     2de:	44f8      	add	r8, pc
     2e0:	f858 3003 	ldr.w	r3, [r8, r3]
     2e4:	681b      	ldr	r3, [r3, #0]
     2e6:	930d      	str	r3, [sp, #52]	; 0x34
/home/yocto/yocto-rfpf-new/yocto-rfpf/build/tmp/work/cortexa9hf-vfp-neon-ubinux-linux-gnueabi/optee-os/2.0.0+gitAUTOINC+ca6737b41c-r0/git/lib/libutee/arch/arm/user_ta_entry.c:203
     2e8:	d03d      	beq.n	366 <__utee_entry+0x9a>
     2ea:	d302      	bcc.n	2f2 <__utee_entry+0x26>
     2ec:	2802      	cmp	r0, #2
     2ee:	d047      	beq.n	380 <__utee_entry+0xb4>
     2f0:	e06e      	b.n	3d0 <__utee_entry+0x104>
ta_header_add_session():
/home/yocto/yocto-rfpf-new/yocto-rfpf/build/tmp/work/cortexa9hf-vfp-neon-ubinux-linux-gnueabi/optee-os/2.0.0+gitAUTOINC+ca6737b41c-r0/git/lib/libutee/arch/arm/user_ta_entry.c:84
     2f2:	4608      	mov	r0, r1
     2f4:	f7ff ff8c 	bl	210 <ta_header_get_session>
/home/yocto/yocto-rfpf-new/yocto-rfpf/build/tmp/work/cortexa9hf-vfp-neon-ubinux-linux-gnueabi/optee-os/2.0.0+gitAUTOINC+ca6737b41c-r0/git/lib/libutee/arch/arm/user_ta_entry.c:86
     2f8:	2800      	cmp	r0, #0
     2fa:	d17b      	bne.n	3f4 <__utee_entry+0x128>
/home/yocto/yocto-rfpf-new/yocto-rfpf/build/tmp/work/cortexa9hf-vfp-neon-ubinux-linux-gnueabi/optee-os/2.0.0+gitAUTOINC+ca6737b41c-r0/git/lib/libutee/arch/arm/user_ta_entry.c:89
     2fc:	4d5f      	ldr	r5, [pc, #380]	; (47c <__utee_entry+0x1b0>)
     2fe:	447d      	add	r5, pc
     300:	682c      	ldr	r4, [r5, #0]
     302:	3401      	adds	r4, #1
/home/yocto/yocto-rfpf-new/yocto-rfpf/build/tmp/work/cortexa9hf-vfp-neon-ubinux-linux-gnueabi/optee-os/2.0.0+gitAUTOINC+ca6737b41c-r0/git/lib/libutee/arch/arm/user_ta_entry.c:91
     304:	2c01      	cmp	r4, #1
/home/yocto/yocto-rfpf-new/yocto-rfpf/build/tmp/work/cortexa9hf-vfp-neon-ubinux-linux-gnueabi/optee-os/2.0.0+gitAUTOINC+ca6737b41c-r0/git/lib/libutee/arch/arm/user_ta_entry.c:89
     306:	602c      	str	r4, [r5, #0]
/home/yocto/yocto-rfpf-new/yocto-rfpf/build/tmp/work/cortexa9hf-vfp-neon-ubinux-linux-gnueabi/optee-os/2.0.0+gitAUTOINC+ca6737b41c-r0/git/lib/libutee/arch/arm/user_ta_entry.c:91
     308:	d013      	beq.n	332 <__utee_entry+0x66>
/home/yocto/yocto-rfpf-new/yocto-rfpf/build/tmp/work/cortexa9hf-vfp-neon-ubinux-linux-gnueabi/optee-os/2.0.0+gitAUTOINC+ca6737b41c-r0/git/lib/libutee/arch/arm/user_ta_entry.c:106
     30a:	f04f 4100 	mov.w	r1, #2147483648	; 0x80000000
     30e:	2010      	movs	r0, #16
     310:	f001 fbca 	bl	1aa8 <TEE_Malloc>
/home/yocto/yocto-rfpf-new/yocto-rfpf/build/tmp/work/cortexa9hf-vfp-neon-ubinux-linux-gnueabi/optee-os/2.0.0+gitAUTOINC+ca6737b41c-r0/git/lib/libutee/arch/arm/user_ta_entry.c:108
     314:	2800      	cmp	r0, #0
     316:	f000 80a6 	beq.w	466 <__utee_entry+0x19a>
/home/yocto/yocto-rfpf-new/yocto-rfpf/build/tmp/work/cortexa9hf-vfp-neon-ubinux-linux-gnueabi/optee-os/2.0.0+gitAUTOINC+ca6737b41c-r0/git/lib/libutee/arch/arm/user_ta_entry.c:111
     31a:	2300      	movs	r3, #0
/home/yocto/yocto-rfpf-new/yocto-rfpf/build/tmp/work/cortexa9hf-vfp-neon-ubinux-linux-gnueabi/optee-os/2.0.0+gitAUTOINC+ca6737b41c-r0/git/lib/libutee/arch/arm/user_ta_entry.c:110
     31c:	6007      	str	r7, [r0, #0]
/home/yocto/yocto-rfpf-new/yocto-rfpf/build/tmp/work/cortexa9hf-vfp-neon-ubinux-linux-gnueabi/optee-os/2.0.0+gitAUTOINC+ca6737b41c-r0/git/lib/libutee/arch/arm/user_ta_entry.c:111
     31e:	6043      	str	r3, [r0, #4]
/home/yocto/yocto-rfpf-new/yocto-rfpf/build/tmp/work/cortexa9hf-vfp-neon-ubinux-linux-gnueabi/optee-os/2.0.0+gitAUTOINC+ca6737b41c-r0/git/lib/libutee/arch/arm/user_ta_entry.c:112
     320:	6083      	str	r3, [r0, #8]
     322:	4b57      	ldr	r3, [pc, #348]	; (480 <__utee_entry+0x1b4>)
     324:	447b      	add	r3, pc
     326:	685a      	ldr	r2, [r3, #4]
     328:	60c2      	str	r2, [r0, #12]
     32a:	6010      	str	r0, [r2, #0]
     32c:	3008      	adds	r0, #8
     32e:	6058      	str	r0, [r3, #4]
     330:	e060      	b.n	3f4 <__utee_entry+0x128>
/home/yocto/yocto-rfpf-new/yocto-rfpf/build/tmp/work/cortexa9hf-vfp-neon-ubinux-linux-gnueabi/optee-os/2.0.0+gitAUTOINC+ca6737b41c-r0/git/lib/libutee/arch/arm/user_ta_entry.c:94
     332:	792b      	ldrb	r3, [r5, #4]
     334:	b98b      	cbnz	r3, 35a <__utee_entry+0x8e>
/home/yocto/yocto-rfpf-new/yocto-rfpf/build/tmp/work/cortexa9hf-vfp-neon-ubinux-linux-gnueabi/optee-os/2.0.0+gitAUTOINC+ca6737b41c-r0/git/lib/libutee/arch/arm/user_ta_entry.c:95
     336:	f7ff ff55 	bl	1e4 <tahead_get_trace_level>
     33a:	f003 fb37 	bl	39ac <trace_set_level>
/home/yocto/yocto-rfpf-new/yocto-rfpf/build/tmp/work/cortexa9hf-vfp-neon-ubinux-linux-gnueabi/optee-os/2.0.0+gitAUTOINC+ca6737b41c-r0/git/lib/libutee/arch/arm/user_ta_entry.c:96
     33e:	4b51      	ldr	r3, [pc, #324]	; (484 <__utee_entry+0x1b8>)
     340:	4a51      	ldr	r2, [pc, #324]	; (488 <__utee_entry+0x1bc>)
     342:	f858 3003 	ldr.w	r3, [r8, r3]
     346:	f858 2002 	ldr.w	r2, [r8, r2]
     34a:	6819      	ldr	r1, [r3, #0]
     34c:	4610      	mov	r0, r2
     34e:	9203      	str	r2, [sp, #12]
     350:	f002 fd52 	bl	2df8 <malloc_add_pool>
/home/yocto/yocto-rfpf-new/yocto-rfpf/build/tmp/work/cortexa9hf-vfp-neon-ubinux-linux-gnueabi/optee-os/2.0.0+gitAUTOINC+ca6737b41c-r0/git/lib/libutee/arch/arm/user_ta_entry.c:97
     354:	f000 fb8c 	bl	a70 <_TEE_MathAPI_Init>
/home/yocto/yocto-rfpf-new/yocto-rfpf/build/tmp/work/cortexa9hf-vfp-neon-ubinux-linux-gnueabi/optee-os/2.0.0+gitAUTOINC+ca6737b41c-r0/git/lib/libutee/arch/arm/user_ta_entry.c:98
     358:	712c      	strb	r4, [r5, #4]
/home/yocto/yocto-rfpf-new/yocto-rfpf/build/tmp/work/cortexa9hf-vfp-neon-ubinux-linux-gnueabi/optee-os/2.0.0+gitAUTOINC+ca6737b41c-r0/git/lib/libutee/arch/arm/user_ta_entry.c:101
     35a:	f7ff fe61 	bl	20 <TA_CreateEntryPoint>
/home/yocto/yocto-rfpf-new/yocto-rfpf/build/tmp/work/cortexa9hf-vfp-neon-ubinux-linux-gnueabi/optee-os/2.0.0+gitAUTOINC+ca6737b41c-r0/git/lib/libutee/arch/arm/user_ta_entry.c:102
     35e:	2800      	cmp	r0, #0
     360:	d0d3      	beq.n	30a <__utee_entry+0x3e>
     362:	4604      	mov	r4, r0
     364:	e04c      	b.n	400 <__utee_entry+0x134>
entry_close_session():
/home/yocto/yocto-rfpf-new/yocto-rfpf/build/tmp/work/cortexa9hf-vfp-neon-ubinux-linux-gnueabi/optee-os/2.0.0+gitAUTOINC+ca6737b41c-r0/git/lib/libutee/arch/arm/user_ta_entry.c:166
     366:	4608      	mov	r0, r1
     368:	f7ff ff52 	bl	210 <ta_header_get_session>
/home/yocto/yocto-rfpf-new/yocto-rfpf/build/tmp/work/cortexa9hf-vfp-neon-ubinux-linux-gnueabi/optee-os/2.0.0+gitAUTOINC+ca6737b41c-r0/git/lib/libutee/arch/arm/user_ta_entry.c:168
     36c:	2800      	cmp	r0, #0
     36e:	d046      	beq.n	3fe <__utee_entry+0x132>
/home/yocto/yocto-rfpf-new/yocto-rfpf/build/tmp/work/cortexa9hf-vfp-neon-ubinux-linux-gnueabi/optee-os/2.0.0+gitAUTOINC+ca6737b41c-r0/git/lib/libutee/arch/arm/user_ta_entry.c:171
     370:	6840      	ldr	r0, [r0, #4]
/home/yocto/yocto-rfpf-new/yocto-rfpf/build/tmp/work/cortexa9hf-vfp-neon-ubinux-linux-gnueabi/optee-os/2.0.0+gitAUTOINC+ca6737b41c-r0/git/lib/libutee/arch/arm/user_ta_entry.c:174
     372:	2400      	movs	r4, #0
/home/yocto/yocto-rfpf-new/yocto-rfpf/build/tmp/work/cortexa9hf-vfp-neon-ubinux-linux-gnueabi/optee-os/2.0.0+gitAUTOINC+ca6737b41c-r0/git/lib/libutee/arch/arm/user_ta_entry.c:171
     374:	f7ff fec4 	bl	100 <TA_CloseSessionEntryPoint>
/home/yocto/yocto-rfpf-new/yocto-rfpf/build/tmp/work/cortexa9hf-vfp-neon-ubinux-linux-gnueabi/optee-os/2.0.0+gitAUTOINC+ca6737b41c-r0/git/lib/libutee/arch/arm/user_ta_entry.c:173
     378:	4638      	mov	r0, r7
     37a:	f7ff ff69 	bl	250 <ta_header_remove_session>
     37e:	e03f      	b.n	400 <__utee_entry+0x134>
entry_invoke_command():
/home/yocto/yocto-rfpf-new/yocto-rfpf/build/tmp/work/cortexa9hf-vfp-neon-ubinux-linux-gnueabi/optee-os/2.0.0+gitAUTOINC+ca6737b41c-r0/git/lib/libutee/arch/arm/user_ta_entry.c:183
     380:	4608      	mov	r0, r1
     382:	f7ff ff45 	bl	210 <ta_header_get_session>
/home/yocto/yocto-rfpf-new/yocto-rfpf/build/tmp/work/cortexa9hf-vfp-neon-ubinux-linux-gnueabi/optee-os/2.0.0+gitAUTOINC+ca6737b41c-r0/git/lib/libutee/arch/arm/user_ta_entry.c:185
     386:	4680      	mov	r8, r0
     388:	2800      	cmp	r0, #0
     38a:	d038      	beq.n	3fe <__utee_entry+0x132>
/home/yocto/yocto-rfpf-new/yocto-rfpf/build/tmp/work/cortexa9hf-vfp-neon-ubinux-linux-gnueabi/optee-os/2.0.0+gitAUTOINC+ca6737b41c-r0/git/lib/libutee/arch/arm/user_ta_entry.c:188
     38c:	af05      	add	r7, sp, #20
ta_header_save_params():
/home/yocto/yocto-rfpf-new/yocto-rfpf/build/tmp/work/cortexa9hf-vfp-neon-ubinux-linux-gnueabi/optee-os/2.0.0+gitAUTOINC+ca6737b41c-r0/git/lib/libutee/arch/arm/user_ta_entry.c:63
     38e:	4c3f      	ldr	r4, [pc, #252]	; (48c <__utee_entry+0x1c0>)
entry_invoke_command():
/home/yocto/yocto-rfpf-new/yocto-rfpf/build/tmp/work/cortexa9hf-vfp-neon-ubinux-linux-gnueabi/optee-os/2.0.0+gitAUTOINC+ca6737b41c-r0/git/lib/libutee/arch/arm/user_ta_entry.c:188
     390:	4632      	mov	r2, r6
     392:	a904      	add	r1, sp, #16
     394:	4638      	mov	r0, r7
     396:	f001 f86d 	bl	1474 <__utee_to_param>
ta_header_save_params():
/home/yocto/yocto-rfpf-new/yocto-rfpf/build/tmp/work/cortexa9hf-vfp-neon-ubinux-linux-gnueabi/optee-os/2.0.0+gitAUTOINC+ca6737b41c-r0/git/lib/libutee/arch/arm/user_ta_entry.c:66
     39a:	463d      	mov	r5, r7
entry_invoke_command():
/home/yocto/yocto-rfpf-new/yocto-rfpf/build/tmp/work/cortexa9hf-vfp-neon-ubinux-linux-gnueabi/optee-os/2.0.0+gitAUTOINC+ca6737b41c-r0/git/lib/libutee/arch/arm/user_ta_entry.c:189
     39c:	f8dd e010 	ldr.w	lr, [sp, #16]
ta_header_save_params():
/home/yocto/yocto-rfpf-new/yocto-rfpf/build/tmp/work/cortexa9hf-vfp-neon-ubinux-linux-gnueabi/optee-os/2.0.0+gitAUTOINC+ca6737b41c-r0/git/lib/libutee/arch/arm/user_ta_entry.c:66
     3a0:	cd0f      	ldmia	r5!, {r0, r1, r2, r3}
/home/yocto/yocto-rfpf-new/yocto-rfpf/build/tmp/work/cortexa9hf-vfp-neon-ubinux-linux-gnueabi/optee-os/2.0.0+gitAUTOINC+ca6737b41c-r0/git/lib/libutee/arch/arm/user_ta_entry.c:63
     3a2:	447c      	add	r4, pc
/home/yocto/yocto-rfpf-new/yocto-rfpf/build/tmp/work/cortexa9hf-vfp-neon-ubinux-linux-gnueabi/optee-os/2.0.0+gitAUTOINC+ca6737b41c-r0/git/lib/libutee/arch/arm/user_ta_entry.c:66
     3a4:	340c      	adds	r4, #12
/home/yocto/yocto-rfpf-new/yocto-rfpf/build/tmp/work/cortexa9hf-vfp-neon-ubinux-linux-gnueabi/optee-os/2.0.0+gitAUTOINC+ca6737b41c-r0/git/lib/libutee/arch/arm/user_ta_entry.c:63
     3a6:	f844 ec04 	str.w	lr, [r4, #-4]
/home/yocto/yocto-rfpf-new/yocto-rfpf/build/tmp/work/cortexa9hf-vfp-neon-ubinux-linux-gnueabi/optee-os/2.0.0+gitAUTOINC+ca6737b41c-r0/git/lib/libutee/arch/arm/user_ta_entry.c:66
     3aa:	c40f      	stmia	r4!, {r0, r1, r2, r3}
     3ac:	e895 000f 	ldmia.w	r5, {r0, r1, r2, r3}
     3b0:	e884 000f 	stmia.w	r4, {r0, r1, r2, r3}
entry_invoke_command():
/home/yocto/yocto-rfpf-new/yocto-rfpf/build/tmp/work/cortexa9hf-vfp-neon-ubinux-linux-gnueabi/optee-os/2.0.0+gitAUTOINC+ca6737b41c-r0/git/lib/libutee/arch/arm/user_ta_entry.c:191
     3b4:	4672      	mov	r2, lr
     3b6:	4649      	mov	r1, r9
     3b8:	463b      	mov	r3, r7
     3ba:	f8d8 0004 	ldr.w	r0, [r8, #4]
     3be:	f7ff fec1 	bl	144 <TA_InvokeCommandEntryPoint>
     3c2:	4604      	mov	r4, r0
/home/yocto/yocto-rfpf-new/yocto-rfpf/build/tmp/work/cortexa9hf-vfp-neon-ubinux-linux-gnueabi/optee-os/2.0.0+gitAUTOINC+ca6737b41c-r0/git/lib/libutee/arch/arm/user_ta_entry.c:194
     3c4:	463a      	mov	r2, r7
     3c6:	9904      	ldr	r1, [sp, #16]
     3c8:	4630      	mov	r0, r6
     3ca:	f001 f815 	bl	13f8 <__utee_from_param>
     3ce:	e017      	b.n	400 <__utee_entry+0x134>
__utee_entry():
/home/yocto/yocto-rfpf-new/yocto-rfpf/build/tmp/work/cortexa9hf-vfp-neon-ubinux-linux-gnueabi/optee-os/2.0.0+gitAUTOINC+ca6737b41c-r0/git/lib/libutee/arch/arm/user_ta_entry.c:215
     3d0:	4b2f      	ldr	r3, [pc, #188]	; (490 <__utee_entry+0x1c4>)
     3d2:	2400      	movs	r4, #0
     3d4:	21d7      	movs	r1, #215	; 0xd7
     3d6:	482f      	ldr	r0, [pc, #188]	; (494 <__utee_entry+0x1c8>)
     3d8:	447b      	add	r3, pc
     3da:	4478      	add	r0, pc
     3dc:	e9cd 3400 	strd	r3, r4, [sp]
     3e0:	2301      	movs	r3, #1
     3e2:	461a      	mov	r2, r3
     3e4:	f003 fb1a 	bl	3a1c <trace_printf>
     3e8:	4620      	mov	r0, r4
/home/yocto/yocto-rfpf-new/yocto-rfpf/build/tmp/work/cortexa9hf-vfp-neon-ubinux-linux-gnueabi/optee-os/2.0.0+gitAUTOINC+ca6737b41c-r0/git/lib/libutee/arch/arm/user_ta_entry.c:214
     3ea:	f04f 34ff 	mov.w	r4, #4294967295	; 0xffffffff
/home/yocto/yocto-rfpf-new/yocto-rfpf/build/tmp/work/cortexa9hf-vfp-neon-ubinux-linux-gnueabi/optee-os/2.0.0+gitAUTOINC+ca6737b41c-r0/git/lib/libutee/arch/arm/user_ta_entry.c:215
     3ee:	f001 fbe5 	bl	1bbc <__TEE_Panic>
/home/yocto/yocto-rfpf-new/yocto-rfpf/build/tmp/work/cortexa9hf-vfp-neon-ubinux-linux-gnueabi/optee-os/2.0.0+gitAUTOINC+ca6737b41c-r0/git/lib/libutee/arch/arm/user_ta_entry.c:216
     3f2:	e005      	b.n	400 <__utee_entry+0x134>
entry_open_session():
/home/yocto/yocto-rfpf-new/yocto-rfpf/build/tmp/work/cortexa9hf-vfp-neon-ubinux-linux-gnueabi/optee-os/2.0.0+gitAUTOINC+ca6737b41c-r0/git/lib/libutee/arch/arm/user_ta_entry.c:147
     3f4:	4638      	mov	r0, r7
     3f6:	f7ff ff0b 	bl	210 <ta_header_get_session>
/home/yocto/yocto-rfpf-new/yocto-rfpf/build/tmp/work/cortexa9hf-vfp-neon-ubinux-linux-gnueabi/optee-os/2.0.0+gitAUTOINC+ca6737b41c-r0/git/lib/libutee/arch/arm/user_ta_entry.c:148
     3fa:	4681      	mov	r9, r0
     3fc:	b960      	cbnz	r0, 418 <__utee_entry+0x14c>
entry_close_session():
/home/yocto/yocto-rfpf-new/yocto-rfpf/build/tmp/work/cortexa9hf-vfp-neon-ubinux-linux-gnueabi/optee-os/2.0.0+gitAUTOINC+ca6737b41c-r0/git/lib/libutee/arch/arm/user_ta_entry.c:169
     3fe:	4c1b      	ldr	r4, [pc, #108]	; (46c <__utee_entry+0x1a0>)
ta_header_save_params():
/home/yocto/yocto-rfpf-new/yocto-rfpf/build/tmp/work/cortexa9hf-vfp-neon-ubinux-linux-gnueabi/optee-os/2.0.0+gitAUTOINC+ca6737b41c-r0/git/lib/libutee/arch/arm/user_ta_entry.c:63
     400:	4825      	ldr	r0, [pc, #148]	; (498 <__utee_entry+0x1cc>)
     402:	2100      	movs	r1, #0
/home/yocto/yocto-rfpf-new/yocto-rfpf/build/tmp/work/cortexa9hf-vfp-neon-ubinux-linux-gnueabi/optee-os/2.0.0+gitAUTOINC+ca6737b41c-r0/git/lib/libutee/arch/arm/user_ta_entry.c:68
     404:	2220      	movs	r2, #32
/home/yocto/yocto-rfpf-new/yocto-rfpf/build/tmp/work/cortexa9hf-vfp-neon-ubinux-linux-gnueabi/optee-os/2.0.0+gitAUTOINC+ca6737b41c-r0/git/lib/libutee/arch/arm/user_ta_entry.c:63
     406:	4478      	add	r0, pc
/home/yocto/yocto-rfpf-new/yocto-rfpf/build/tmp/work/cortexa9hf-vfp-neon-ubinux-linux-gnueabi/optee-os/2.0.0+gitAUTOINC+ca6737b41c-r0/git/lib/libutee/arch/arm/user_ta_entry.c:68
     408:	300c      	adds	r0, #12
/home/yocto/yocto-rfpf-new/yocto-rfpf/build/tmp/work/cortexa9hf-vfp-neon-ubinux-linux-gnueabi/optee-os/2.0.0+gitAUTOINC+ca6737b41c-r0/git/lib/libutee/arch/arm/user_ta_entry.c:63
     40a:	f840 1c04 	str.w	r1, [r0, #-4]
/home/yocto/yocto-rfpf-new/yocto-rfpf/build/tmp/work/cortexa9hf-vfp-neon-ubinux-linux-gnueabi/optee-os/2.0.0+gitAUTOINC+ca6737b41c-r0/git/lib/libutee/arch/arm/user_ta_entry.c:68
     40e:	f002 fe99 	bl	3144 <memset>
__utee_entry():
/home/yocto/yocto-rfpf-new/yocto-rfpf/build/tmp/work/cortexa9hf-vfp-neon-ubinux-linux-gnueabi/optee-os/2.0.0+gitAUTOINC+ca6737b41c-r0/git/lib/libutee/arch/arm/user_ta_entry.c:219
     412:	4620      	mov	r0, r4
     414:	f000 e844 	blx	4a0 <utee_return>
entry_open_session():
/home/yocto/yocto-rfpf-new/yocto-rfpf/build/tmp/work/cortexa9hf-vfp-neon-ubinux-linux-gnueabi/optee-os/2.0.0+gitAUTOINC+ca6737b41c-r0/git/lib/libutee/arch/arm/user_ta_entry.c:151
     418:	f10d 0814 	add.w	r8, sp, #20
ta_header_save_params():
/home/yocto/yocto-rfpf-new/yocto-rfpf/build/tmp/work/cortexa9hf-vfp-neon-ubinux-linux-gnueabi/optee-os/2.0.0+gitAUTOINC+ca6737b41c-r0/git/lib/libutee/arch/arm/user_ta_entry.c:63
     41c:	4c1f      	ldr	r4, [pc, #124]	; (49c <__utee_entry+0x1d0>)
entry_open_session():
/home/yocto/yocto-rfpf-new/yocto-rfpf/build/tmp/work/cortexa9hf-vfp-neon-ubinux-linux-gnueabi/optee-os/2.0.0+gitAUTOINC+ca6737b41c-r0/git/lib/libutee/arch/arm/user_ta_entry.c:151
     41e:	4632      	mov	r2, r6
     420:	a904      	add	r1, sp, #16
     422:	4640      	mov	r0, r8
     424:	f001 f826 	bl	1474 <__utee_to_param>
ta_header_save_params():
/home/yocto/yocto-rfpf-new/yocto-rfpf/build/tmp/work/cortexa9hf-vfp-neon-ubinux-linux-gnueabi/optee-os/2.0.0+gitAUTOINC+ca6737b41c-r0/git/lib/libutee/arch/arm/user_ta_entry.c:66
     428:	4645      	mov	r5, r8
entry_open_session():
/home/yocto/yocto-rfpf-new/yocto-rfpf/build/tmp/work/cortexa9hf-vfp-neon-ubinux-linux-gnueabi/optee-os/2.0.0+gitAUTOINC+ca6737b41c-r0/git/lib/libutee/arch/arm/user_ta_entry.c:152
     42a:	f8dd e010 	ldr.w	lr, [sp, #16]
ta_header_save_params():
/home/yocto/yocto-rfpf-new/yocto-rfpf/build/tmp/work/cortexa9hf-vfp-neon-ubinux-linux-gnueabi/optee-os/2.0.0+gitAUTOINC+ca6737b41c-r0/git/lib/libutee/arch/arm/user_ta_entry.c:66
     42e:	cd0f      	ldmia	r5!, {r0, r1, r2, r3}
/home/yocto/yocto-rfpf-new/yocto-rfpf/build/tmp/work/cortexa9hf-vfp-neon-ubinux-linux-gnueabi/optee-os/2.0.0+gitAUTOINC+ca6737b41c-r0/git/lib/libutee/arch/arm/user_ta_entry.c:63
     430:	447c      	add	r4, pc
/home/yocto/yocto-rfpf-new/yocto-rfpf/build/tmp/work/cortexa9hf-vfp-neon-ubinux-linux-gnueabi/optee-os/2.0.0+gitAUTOINC+ca6737b41c-r0/git/lib/libutee/arch/arm/user_ta_entry.c:66
     432:	340c      	adds	r4, #12
/home/yocto/yocto-rfpf-new/yocto-rfpf/build/tmp/work/cortexa9hf-vfp-neon-ubinux-linux-gnueabi/optee-os/2.0.0+gitAUTOINC+ca6737b41c-r0/git/lib/libutee/arch/arm/user_ta_entry.c:63
     434:	f844 ec04 	str.w	lr, [r4, #-4]
/home/yocto/yocto-rfpf-new/yocto-rfpf/build/tmp/work/cortexa9hf-vfp-neon-ubinux-linux-gnueabi/optee-os/2.0.0+gitAUTOINC+ca6737b41c-r0/git/lib/libutee/arch/arm/user_ta_entry.c:66
     438:	c40f      	stmia	r4!, {r0, r1, r2, r3}
     43a:	e895 000f 	ldmia.w	r5, {r0, r1, r2, r3}
     43e:	e884 000f 	stmia.w	r4, {r0, r1, r2, r3}
entry_open_session():
/home/yocto/yocto-rfpf-new/yocto-rfpf/build/tmp/work/cortexa9hf-vfp-neon-ubinux-linux-gnueabi/optee-os/2.0.0+gitAUTOINC+ca6737b41c-r0/git/lib/libutee/arch/arm/user_ta_entry.c:154
     442:	f109 0204 	add.w	r2, r9, #4
     446:	4641      	mov	r1, r8
     448:	4670      	mov	r0, lr
     44a:	f7ff fe2d 	bl	a8 <TA_OpenSessionEntryPoint>
     44e:	4604      	mov	r4, r0
/home/yocto/yocto-rfpf-new/yocto-rfpf/build/tmp/work/cortexa9hf-vfp-neon-ubinux-linux-gnueabi/optee-os/2.0.0+gitAUTOINC+ca6737b41c-r0/git/lib/libutee/arch/arm/user_ta_entry.c:157
     450:	4642      	mov	r2, r8
     452:	9904      	ldr	r1, [sp, #16]
     454:	4630      	mov	r0, r6
     456:	f000 ffcf 	bl	13f8 <__utee_from_param>
/home/yocto/yocto-rfpf-new/yocto-rfpf/build/tmp/work/cortexa9hf-vfp-neon-ubinux-linux-gnueabi/optee-os/2.0.0+gitAUTOINC+ca6737b41c-r0/git/lib/libutee/arch/arm/user_ta_entry.c:159
     45a:	2c00      	cmp	r4, #0
     45c:	d0d0      	beq.n	400 <__utee_entry+0x134>
/home/yocto/yocto-rfpf-new/yocto-rfpf/build/tmp/work/cortexa9hf-vfp-neon-ubinux-linux-gnueabi/optee-os/2.0.0+gitAUTOINC+ca6737b41c-r0/git/lib/libutee/arch/arm/user_ta_entry.c:160
     45e:	4638      	mov	r0, r7
     460:	f7ff fef6 	bl	250 <ta_header_remove_session>
     464:	e7cc      	b.n	400 <__utee_entry+0x134>
ta_header_add_session():
/home/yocto/yocto-rfpf-new/yocto-rfpf/build/tmp/work/cortexa9hf-vfp-neon-ubinux-linux-gnueabi/optee-os/2.0.0+gitAUTOINC+ca6737b41c-r0/git/lib/libutee/arch/arm/user_ta_entry.c:109
     466:	4c02      	ldr	r4, [pc, #8]	; (470 <__utee_entry+0x1a4>)
     468:	e7ca      	b.n	400 <__utee_entry+0x134>
     46a:	bf00      	nop
     46c:	ffff0007 	.word	0xffff0007
     470:	ffff000c 	.word	0xffff000c
     474:	0000824e 	.word	0x0000824e
     478:	0000000c 	.word	0x0000000c
     47c:	00008d92 	.word	0x00008d92
     480:	00008d48 	.word	0x00008d48
     484:	00000010 	.word	0x00000010
     488:	00000024 	.word	0x00000024
     48c:	00008cee 	.word	0x00008cee
     490:	00007990 	.word	0x00007990
     494:	00007981 	.word	0x00007981
     498:	00008c8a 	.word	0x00008c8a
     49c:	00008c60 	.word	0x00008c60

000004a0 <utee_return>:
utee_return():
     4a0:	e92d40e0 	push	{r5, r6, r7, lr}
     4a4:	e3a07000 	mov	r7, #0
     4a8:	e3a06000 	mov	r6, #0
     4ac:	ef000000 	svc	0x00000000
     4b0:	e8bd80e0 	pop	{r5, r6, r7, pc}

000004b4 <utee_log>:
utee_log():
     4b4:	e92d40e0 	push	{r5, r6, r7, lr}
     4b8:	e3a07001 	mov	r7, #1
     4bc:	e3a06000 	mov	r6, #0
     4c0:	ef000000 	svc	0x00000000
     4c4:	e8bd80e0 	pop	{r5, r6, r7, pc}

000004c8 <utee_panic>:
utee_panic():
     4c8:	e92d40e0 	push	{r5, r6, r7, lr}
     4cc:	e3a07002 	mov	r7, #2
     4d0:	e3a06000 	mov	r6, #0
     4d4:	ef000000 	svc	0x00000000
     4d8:	e8bd80e0 	pop	{r5, r6, r7, pc}

000004dc <utee_get_property>:
utee_get_property():
     4dc:	e92d40e0 	push	{r5, r6, r7, lr}
     4e0:	e3a07003 	mov	r7, #3
     4e4:	e3a06003 	mov	r6, #3
     4e8:	e28d5010 	add	r5, sp, #16
     4ec:	ef000000 	svc	0x00000000
     4f0:	e8bd80e0 	pop	{r5, r6, r7, pc}

000004f4 <utee_get_property_name_to_index>:
utee_get_property_name_to_index():
     4f4:	e92d40e0 	push	{r5, r6, r7, lr}
     4f8:	e3a07004 	mov	r7, #4
     4fc:	e3a06000 	mov	r6, #0
     500:	ef000000 	svc	0x00000000
     504:	e8bd80e0 	pop	{r5, r6, r7, pc}

00000508 <utee_open_ta_session>:
utee_open_ta_session():
     508:	e92d40e0 	push	{r5, r6, r7, lr}
     50c:	e3a07005 	mov	r7, #5
     510:	e3a06001 	mov	r6, #1
     514:	e28d5010 	add	r5, sp, #16
     518:	ef000000 	svc	0x00000000
     51c:	e8bd80e0 	pop	{r5, r6, r7, pc}

00000520 <utee_close_ta_session>:
utee_close_ta_session():
     520:	e92d40e0 	push	{r5, r6, r7, lr}
     524:	e3a07006 	mov	r7, #6
     528:	e3a06000 	mov	r6, #0
     52c:	ef000000 	svc	0x00000000
     530:	e8bd80e0 	pop	{r5, r6, r7, pc}

00000534 <utee_invoke_ta_command>:
utee_invoke_ta_command():
     534:	e92d40e0 	push	{r5, r6, r7, lr}
     538:	e3a07007 	mov	r7, #7
     53c:	e3a06001 	mov	r6, #1
     540:	e28d5010 	add	r5, sp, #16
     544:	ef000000 	svc	0x00000000
     548:	e8bd80e0 	pop	{r5, r6, r7, pc}

0000054c <utee_get_cancellation_flag>:
utee_get_cancellation_flag():
     54c:	e92d40e0 	push	{r5, r6, r7, lr}
     550:	e3a07009 	mov	r7, #9
     554:	e3a06000 	mov	r6, #0
     558:	ef000000 	svc	0x00000000
     55c:	e8bd80e0 	pop	{r5, r6, r7, pc}

00000560 <utee_check_access_rights>:
utee_check_access_rights():
     560:	e92d40e0 	push	{r5, r6, r7, lr}
     564:	e3a07008 	mov	r7, #8
     568:	e3a06000 	mov	r6, #0
     56c:	ef000000 	svc	0x00000000
     570:	e8bd80e0 	pop	{r5, r6, r7, pc}

00000574 <utee_unmask_cancellation>:
utee_unmask_cancellation():
     574:	e92d40e0 	push	{r5, r6, r7, lr}
     578:	e3a0700a 	mov	r7, #10
     57c:	e3a06000 	mov	r6, #0
     580:	ef000000 	svc	0x00000000
     584:	e8bd80e0 	pop	{r5, r6, r7, pc}

00000588 <utee_mask_cancellation>:
utee_mask_cancellation():
     588:	e92d40e0 	push	{r5, r6, r7, lr}
     58c:	e3a0700b 	mov	r7, #11
     590:	e3a06000 	mov	r6, #0
     594:	ef000000 	svc	0x00000000
     598:	e8bd80e0 	pop	{r5, r6, r7, pc}

0000059c <utee_wait>:
utee_wait():
     59c:	e92d40e0 	push	{r5, r6, r7, lr}
     5a0:	e3a0700c 	mov	r7, #12
     5a4:	e3a06000 	mov	r6, #0
     5a8:	ef000000 	svc	0x00000000
     5ac:	e8bd80e0 	pop	{r5, r6, r7, pc}

000005b0 <utee_get_time>:
utee_get_time():
     5b0:	e92d40e0 	push	{r5, r6, r7, lr}
     5b4:	e3a0700d 	mov	r7, #13
     5b8:	e3a06000 	mov	r6, #0
     5bc:	ef000000 	svc	0x00000000
     5c0:	e8bd80e0 	pop	{r5, r6, r7, pc}

000005c4 <utee_set_ta_time>:
utee_set_ta_time():
     5c4:	e92d40e0 	push	{r5, r6, r7, lr}
     5c8:	e3a0700e 	mov	r7, #14
     5cc:	e3a06000 	mov	r6, #0
     5d0:	ef000000 	svc	0x00000000
     5d4:	e8bd80e0 	pop	{r5, r6, r7, pc}

000005d8 <utee_cryp_state_alloc>:
utee_cryp_state_alloc():
     5d8:	e92d40e0 	push	{r5, r6, r7, lr}
     5dc:	e3a0700f 	mov	r7, #15
     5e0:	e3a06001 	mov	r6, #1
     5e4:	e28d5010 	add	r5, sp, #16
     5e8:	ef000000 	svc	0x00000000
     5ec:	e8bd80e0 	pop	{r5, r6, r7, pc}

000005f0 <utee_cryp_state_copy>:
utee_cryp_state_copy():
     5f0:	e92d40e0 	push	{r5, r6, r7, lr}
     5f4:	e3a07010 	mov	r7, #16
     5f8:	e3a06000 	mov	r6, #0
     5fc:	ef000000 	svc	0x00000000
     600:	e8bd80e0 	pop	{r5, r6, r7, pc}

00000604 <utee_cryp_state_free>:
utee_cryp_state_free():
     604:	e92d40e0 	push	{r5, r6, r7, lr}
     608:	e3a07011 	mov	r7, #17
     60c:	e3a06000 	mov	r6, #0
     610:	ef000000 	svc	0x00000000
     614:	e8bd80e0 	pop	{r5, r6, r7, pc}

00000618 <utee_hash_init>:
utee_hash_init():
     618:	e92d40e0 	push	{r5, r6, r7, lr}
     61c:	e3a07012 	mov	r7, #18
     620:	e3a06000 	mov	r6, #0
     624:	ef000000 	svc	0x00000000
     628:	e8bd80e0 	pop	{r5, r6, r7, pc}

0000062c <utee_hash_update>:
utee_hash_update():
     62c:	e92d40e0 	push	{r5, r6, r7, lr}
     630:	e3a07013 	mov	r7, #19
     634:	e3a06000 	mov	r6, #0
     638:	ef000000 	svc	0x00000000
     63c:	e8bd80e0 	pop	{r5, r6, r7, pc}

00000640 <utee_hash_final>:
utee_hash_final():
     640:	e92d40e0 	push	{r5, r6, r7, lr}
     644:	e3a07014 	mov	r7, #20
     648:	e3a06001 	mov	r6, #1
     64c:	e28d5010 	add	r5, sp, #16
     650:	ef000000 	svc	0x00000000
     654:	e8bd80e0 	pop	{r5, r6, r7, pc}

00000658 <utee_cipher_init>:
utee_cipher_init():
     658:	e92d40e0 	push	{r5, r6, r7, lr}
     65c:	e3a07015 	mov	r7, #21
     660:	e3a06000 	mov	r6, #0
     664:	ef000000 	svc	0x00000000
     668:	e8bd80e0 	pop	{r5, r6, r7, pc}

0000066c <utee_cipher_update>:
utee_cipher_update():
     66c:	e92d40e0 	push	{r5, r6, r7, lr}
     670:	e3a07016 	mov	r7, #22
     674:	e3a06001 	mov	r6, #1
     678:	e28d5010 	add	r5, sp, #16
     67c:	ef000000 	svc	0x00000000
     680:	e8bd80e0 	pop	{r5, r6, r7, pc}

00000684 <utee_cipher_final>:
utee_cipher_final():
     684:	e92d40e0 	push	{r5, r6, r7, lr}
     688:	e3a07017 	mov	r7, #23
     68c:	e3a06001 	mov	r6, #1
     690:	e28d5010 	add	r5, sp, #16
     694:	ef000000 	svc	0x00000000
     698:	e8bd80e0 	pop	{r5, r6, r7, pc}

0000069c <utee_cryp_obj_get_info>:
utee_cryp_obj_get_info():
     69c:	e92d40e0 	push	{r5, r6, r7, lr}
     6a0:	e3a07018 	mov	r7, #24
     6a4:	e3a06000 	mov	r6, #0
     6a8:	ef000000 	svc	0x00000000
     6ac:	e8bd80e0 	pop	{r5, r6, r7, pc}

000006b0 <utee_cryp_obj_restrict_usage>:
utee_cryp_obj_restrict_usage():
     6b0:	e92d40e0 	push	{r5, r6, r7, lr}
     6b4:	e3a07019 	mov	r7, #25
     6b8:	e3a06000 	mov	r6, #0
     6bc:	ef000000 	svc	0x00000000
     6c0:	e8bd80e0 	pop	{r5, r6, r7, pc}

000006c4 <utee_cryp_obj_get_attr>:
utee_cryp_obj_get_attr():
     6c4:	e92d40e0 	push	{r5, r6, r7, lr}
     6c8:	e3a0701a 	mov	r7, #26
     6cc:	e3a06000 	mov	r6, #0
     6d0:	ef000000 	svc	0x00000000
     6d4:	e8bd80e0 	pop	{r5, r6, r7, pc}

000006d8 <utee_cryp_obj_alloc>:
utee_cryp_obj_alloc():
     6d8:	e92d40e0 	push	{r5, r6, r7, lr}
     6dc:	e3a0701b 	mov	r7, #27
     6e0:	e3a06000 	mov	r6, #0
     6e4:	ef000000 	svc	0x00000000
     6e8:	e8bd80e0 	pop	{r5, r6, r7, pc}

000006ec <utee_cryp_obj_close>:
utee_cryp_obj_close():
     6ec:	e92d40e0 	push	{r5, r6, r7, lr}
     6f0:	e3a0701c 	mov	r7, #28
     6f4:	e3a06000 	mov	r6, #0
     6f8:	ef000000 	svc	0x00000000
     6fc:	e8bd80e0 	pop	{r5, r6, r7, pc}

00000700 <utee_cryp_obj_reset>:
utee_cryp_obj_reset():
     700:	e92d40e0 	push	{r5, r6, r7, lr}
     704:	e3a0701d 	mov	r7, #29
     708:	e3a06000 	mov	r6, #0
     70c:	ef000000 	svc	0x00000000
     710:	e8bd80e0 	pop	{r5, r6, r7, pc}

00000714 <utee_cryp_obj_populate>:
utee_cryp_obj_populate():
     714:	e92d40e0 	push	{r5, r6, r7, lr}
     718:	e3a0701e 	mov	r7, #30
     71c:	e3a06000 	mov	r6, #0
     720:	ef000000 	svc	0x00000000
     724:	e8bd80e0 	pop	{r5, r6, r7, pc}

00000728 <utee_cryp_obj_copy>:
utee_cryp_obj_copy():
     728:	e92d40e0 	push	{r5, r6, r7, lr}
     72c:	e3a0701f 	mov	r7, #31
     730:	e3a06000 	mov	r6, #0
     734:	ef000000 	svc	0x00000000
     738:	e8bd80e0 	pop	{r5, r6, r7, pc}

0000073c <utee_cryp_derive_key>:
utee_cryp_derive_key():
     73c:	e92d40e0 	push	{r5, r6, r7, lr}
     740:	e3a07020 	mov	r7, #32
     744:	e3a06000 	mov	r6, #0
     748:	ef000000 	svc	0x00000000
     74c:	e8bd80e0 	pop	{r5, r6, r7, pc}

00000750 <utee_cryp_random_number_generate>:
utee_cryp_random_number_generate():
     750:	e92d40e0 	push	{r5, r6, r7, lr}
     754:	e3a07021 	mov	r7, #33	; 0x21
     758:	e3a06000 	mov	r6, #0
     75c:	ef000000 	svc	0x00000000
     760:	e8bd80e0 	pop	{r5, r6, r7, pc}

00000764 <utee_authenc_init>:
utee_authenc_init():
     764:	e92d40e0 	push	{r5, r6, r7, lr}
     768:	e3a07022 	mov	r7, #34	; 0x22
     76c:	e3a06002 	mov	r6, #2
     770:	e28d5010 	add	r5, sp, #16
     774:	ef000000 	svc	0x00000000
     778:	e8bd80e0 	pop	{r5, r6, r7, pc}

0000077c <utee_authenc_update_aad>:
utee_authenc_update_aad():
     77c:	e92d40e0 	push	{r5, r6, r7, lr}
     780:	e3a07023 	mov	r7, #35	; 0x23
     784:	e3a06000 	mov	r6, #0
     788:	ef000000 	svc	0x00000000
     78c:	e8bd80e0 	pop	{r5, r6, r7, pc}

00000790 <utee_authenc_update_payload>:
utee_authenc_update_payload():
     790:	e92d40e0 	push	{r5, r6, r7, lr}
     794:	e3a07024 	mov	r7, #36	; 0x24
     798:	e3a06001 	mov	r6, #1
     79c:	e28d5010 	add	r5, sp, #16
     7a0:	ef000000 	svc	0x00000000
     7a4:	e8bd80e0 	pop	{r5, r6, r7, pc}

000007a8 <utee_authenc_enc_final>:
utee_authenc_enc_final():
     7a8:	e92d40e0 	push	{r5, r6, r7, lr}
     7ac:	e3a07025 	mov	r7, #37	; 0x25
     7b0:	e3a06003 	mov	r6, #3
     7b4:	e28d5010 	add	r5, sp, #16
     7b8:	ef000000 	svc	0x00000000
     7bc:	e8bd80e0 	pop	{r5, r6, r7, pc}

000007c0 <utee_authenc_dec_final>:
utee_authenc_dec_final():
     7c0:	e92d40e0 	push	{r5, r6, r7, lr}
     7c4:	e3a07026 	mov	r7, #38	; 0x26
     7c8:	e3a06003 	mov	r6, #3
     7cc:	e28d5010 	add	r5, sp, #16
     7d0:	ef000000 	svc	0x00000000
     7d4:	e8bd80e0 	pop	{r5, r6, r7, pc}

000007d8 <utee_asymm_operate>:
utee_asymm_operate():
     7d8:	e92d40e0 	push	{r5, r6, r7, lr}
     7dc:	e3a07027 	mov	r7, #39	; 0x27
     7e0:	e3a06003 	mov	r6, #3
     7e4:	e28d5010 	add	r5, sp, #16
     7e8:	ef000000 	svc	0x00000000
     7ec:	e8bd80e0 	pop	{r5, r6, r7, pc}

000007f0 <utee_asymm_verify>:
utee_asymm_verify():
     7f0:	e92d40e0 	push	{r5, r6, r7, lr}
     7f4:	e3a07028 	mov	r7, #40	; 0x28
     7f8:	e3a06003 	mov	r6, #3
     7fc:	e28d5010 	add	r5, sp, #16
     800:	ef000000 	svc	0x00000000
     804:	e8bd80e0 	pop	{r5, r6, r7, pc}

00000808 <utee_storage_obj_open>:
utee_storage_obj_open():
     808:	e92d40e0 	push	{r5, r6, r7, lr}
     80c:	e3a07029 	mov	r7, #41	; 0x29
     810:	e3a06001 	mov	r6, #1
     814:	e28d5010 	add	r5, sp, #16
     818:	ef000000 	svc	0x00000000
     81c:	e8bd80e0 	pop	{r5, r6, r7, pc}

00000820 <utee_storage_obj_create>:
utee_storage_obj_create():
     820:	e92d40e0 	push	{r5, r6, r7, lr}
     824:	e3a0702a 	mov	r7, #42	; 0x2a
     828:	e3a06004 	mov	r6, #4
     82c:	e28d5010 	add	r5, sp, #16
     830:	ef000000 	svc	0x00000000
     834:	e8bd80e0 	pop	{r5, r6, r7, pc}

00000838 <utee_storage_obj_del>:
utee_storage_obj_del():
     838:	e92d40e0 	push	{r5, r6, r7, lr}
     83c:	e3a0702b 	mov	r7, #43	; 0x2b
     840:	e3a06000 	mov	r6, #0
     844:	ef000000 	svc	0x00000000
     848:	e8bd80e0 	pop	{r5, r6, r7, pc}

0000084c <utee_storage_obj_rename>:
utee_storage_obj_rename():
     84c:	e92d40e0 	push	{r5, r6, r7, lr}
     850:	e3a0702c 	mov	r7, #44	; 0x2c
     854:	e3a06000 	mov	r6, #0
     858:	ef000000 	svc	0x00000000
     85c:	e8bd80e0 	pop	{r5, r6, r7, pc}

00000860 <utee_storage_alloc_enum>:
utee_storage_alloc_enum():
     860:	e92d40e0 	push	{r5, r6, r7, lr}
     864:	e3a0702d 	mov	r7, #45	; 0x2d
     868:	e3a06000 	mov	r6, #0
     86c:	ef000000 	svc	0x00000000
     870:	e8bd80e0 	pop	{r5, r6, r7, pc}

00000874 <utee_storage_free_enum>:
utee_storage_free_enum():
     874:	e92d40e0 	push	{r5, r6, r7, lr}
     878:	e3a0702e 	mov	r7, #46	; 0x2e
     87c:	e3a06000 	mov	r6, #0
     880:	ef000000 	svc	0x00000000
     884:	e8bd80e0 	pop	{r5, r6, r7, pc}

00000888 <utee_storage_reset_enum>:
utee_storage_reset_enum():
     888:	e92d40e0 	push	{r5, r6, r7, lr}
     88c:	e3a0702f 	mov	r7, #47	; 0x2f
     890:	e3a06000 	mov	r6, #0
     894:	ef000000 	svc	0x00000000
     898:	e8bd80e0 	pop	{r5, r6, r7, pc}

0000089c <utee_storage_start_enum>:
utee_storage_start_enum():
     89c:	e92d40e0 	push	{r5, r6, r7, lr}
     8a0:	e3a07030 	mov	r7, #48	; 0x30
     8a4:	e3a06000 	mov	r6, #0
     8a8:	ef000000 	svc	0x00000000
     8ac:	e8bd80e0 	pop	{r5, r6, r7, pc}

000008b0 <utee_storage_next_enum>:
utee_storage_next_enum():
     8b0:	e92d40e0 	push	{r5, r6, r7, lr}
     8b4:	e3a07031 	mov	r7, #49	; 0x31
     8b8:	e3a06000 	mov	r6, #0
     8bc:	ef000000 	svc	0x00000000
     8c0:	e8bd80e0 	pop	{r5, r6, r7, pc}

000008c4 <utee_storage_obj_read>:
utee_storage_obj_read():
     8c4:	e92d40e0 	push	{r5, r6, r7, lr}
     8c8:	e3a07032 	mov	r7, #50	; 0x32
     8cc:	e3a06000 	mov	r6, #0
     8d0:	ef000000 	svc	0x00000000
     8d4:	e8bd80e0 	pop	{r5, r6, r7, pc}

000008d8 <utee_storage_obj_write>:
utee_storage_obj_write():
     8d8:	e92d40e0 	push	{r5, r6, r7, lr}
     8dc:	e3a07033 	mov	r7, #51	; 0x33
     8e0:	e3a06000 	mov	r6, #0
     8e4:	ef000000 	svc	0x00000000
     8e8:	e8bd80e0 	pop	{r5, r6, r7, pc}

000008ec <utee_storage_obj_trunc>:
utee_storage_obj_trunc():
     8ec:	e92d40e0 	push	{r5, r6, r7, lr}
     8f0:	e3a07034 	mov	r7, #52	; 0x34
     8f4:	e3a06000 	mov	r6, #0
     8f8:	ef000000 	svc	0x00000000
     8fc:	e8bd80e0 	pop	{r5, r6, r7, pc}

00000900 <utee_storage_obj_seek>:
utee_storage_obj_seek():
     900:	e92d40e0 	push	{r5, r6, r7, lr}
     904:	e3a07035 	mov	r7, #53	; 0x35
     908:	e3a06000 	mov	r6, #0
     90c:	ef000000 	svc	0x00000000
     910:	e8bd80e0 	pop	{r5, r6, r7, pc}

00000914 <utee_cryp_obj_generate_key>:
utee_cryp_obj_generate_key():
     914:	e92d40e0 	push	{r5, r6, r7, lr}
     918:	e3a07036 	mov	r7, #54	; 0x36
     91c:	e3a06000 	mov	r6, #0
     920:	ef000000 	svc	0x00000000
     924:	e8bd80e0 	pop	{r5, r6, r7, pc}

00000928 <utee_se_service_open>:
utee_se_service_open():
     928:	e92d40e0 	push	{r5, r6, r7, lr}
     92c:	e3a07037 	mov	r7, #55	; 0x37
     930:	e3a06000 	mov	r6, #0
     934:	ef000000 	svc	0x00000000
     938:	e8bd80e0 	pop	{r5, r6, r7, pc}

0000093c <utee_se_service_close>:
utee_se_service_close():
     93c:	e92d40e0 	push	{r5, r6, r7, lr}
     940:	e3a07038 	mov	r7, #56	; 0x38
     944:	e3a06000 	mov	r6, #0
     948:	ef000000 	svc	0x00000000
     94c:	e8bd80e0 	pop	{r5, r6, r7, pc}

00000950 <utee_se_service_get_readers>:
utee_se_service_get_readers():
     950:	e92d40e0 	push	{r5, r6, r7, lr}
     954:	e3a07039 	mov	r7, #57	; 0x39
     958:	e3a06000 	mov	r6, #0
     95c:	ef000000 	svc	0x00000000
     960:	e8bd80e0 	pop	{r5, r6, r7, pc}

00000964 <utee_se_reader_get_prop>:
utee_se_reader_get_prop():
     964:	e92d40e0 	push	{r5, r6, r7, lr}
     968:	e3a0703a 	mov	r7, #58	; 0x3a
     96c:	e3a06000 	mov	r6, #0
     970:	ef000000 	svc	0x00000000
     974:	e8bd80e0 	pop	{r5, r6, r7, pc}

00000978 <utee_se_reader_get_name>:
utee_se_reader_get_name():
     978:	e92d40e0 	push	{r5, r6, r7, lr}
     97c:	e3a0703b 	mov	r7, #59	; 0x3b
     980:	e3a06000 	mov	r6, #0
     984:	ef000000 	svc	0x00000000
     988:	e8bd80e0 	pop	{r5, r6, r7, pc}

0000098c <utee_se_reader_open_session>:
utee_se_reader_open_session():
     98c:	e92d40e0 	push	{r5, r6, r7, lr}
     990:	e3a0703c 	mov	r7, #60	; 0x3c
     994:	e3a06000 	mov	r6, #0
     998:	ef000000 	svc	0x00000000
     99c:	e8bd80e0 	pop	{r5, r6, r7, pc}

000009a0 <utee_se_reader_close_sessions>:
utee_se_reader_close_sessions():
     9a0:	e92d40e0 	push	{r5, r6, r7, lr}
     9a4:	e3a0703d 	mov	r7, #61	; 0x3d
     9a8:	e3a06000 	mov	r6, #0
     9ac:	ef000000 	svc	0x00000000
     9b0:	e8bd80e0 	pop	{r5, r6, r7, pc}

000009b4 <utee_se_session_is_closed>:
utee_se_session_is_closed():
     9b4:	e92d40e0 	push	{r5, r6, r7, lr}
     9b8:	e3a0703e 	mov	r7, #62	; 0x3e
     9bc:	e3a06000 	mov	r6, #0
     9c0:	ef000000 	svc	0x00000000
     9c4:	e8bd80e0 	pop	{r5, r6, r7, pc}

000009c8 <utee_se_session_get_atr>:
utee_se_session_get_atr():
     9c8:	e92d40e0 	push	{r5, r6, r7, lr}
     9cc:	e3a0703f 	mov	r7, #63	; 0x3f
     9d0:	e3a06000 	mov	r6, #0
     9d4:	ef000000 	svc	0x00000000
     9d8:	e8bd80e0 	pop	{r5, r6, r7, pc}

000009dc <utee_se_session_open_channel>:
utee_se_session_open_channel():
     9dc:	e92d40e0 	push	{r5, r6, r7, lr}
     9e0:	e3a07040 	mov	r7, #64	; 0x40
     9e4:	e3a06001 	mov	r6, #1
     9e8:	e28d5010 	add	r5, sp, #16
     9ec:	ef000000 	svc	0x00000000
     9f0:	e8bd80e0 	pop	{r5, r6, r7, pc}

000009f4 <utee_se_session_close>:
utee_se_session_close():
     9f4:	e92d40e0 	push	{r5, r6, r7, lr}
     9f8:	e3a07041 	mov	r7, #65	; 0x41
     9fc:	e3a06000 	mov	r6, #0
     a00:	ef000000 	svc	0x00000000
     a04:	e8bd80e0 	pop	{r5, r6, r7, pc}

00000a08 <utee_se_channel_select_next>:
utee_se_channel_select_next():
     a08:	e92d40e0 	push	{r5, r6, r7, lr}
     a0c:	e3a07042 	mov	r7, #66	; 0x42
     a10:	e3a06000 	mov	r6, #0
     a14:	ef000000 	svc	0x00000000
     a18:	e8bd80e0 	pop	{r5, r6, r7, pc}

00000a1c <utee_se_channel_get_select_resp>:
utee_se_channel_get_select_resp():
     a1c:	e92d40e0 	push	{r5, r6, r7, lr}
     a20:	e3a07043 	mov	r7, #67	; 0x43
     a24:	e3a06000 	mov	r6, #0
     a28:	ef000000 	svc	0x00000000
     a2c:	e8bd80e0 	pop	{r5, r6, r7, pc}

00000a30 <utee_se_channel_transmit>:
utee_se_channel_transmit():
     a30:	e92d40e0 	push	{r5, r6, r7, lr}
     a34:	e3a07044 	mov	r7, #68	; 0x44
     a38:	e3a06001 	mov	r6, #1
     a3c:	e28d5010 	add	r5, sp, #16
     a40:	ef000000 	svc	0x00000000
     a44:	e8bd80e0 	pop	{r5, r6, r7, pc}

00000a48 <utee_se_channel_close>:
utee_se_channel_close():
     a48:	e92d40e0 	push	{r5, r6, r7, lr}
     a4c:	e3a07045 	mov	r7, #69	; 0x45
     a50:	e3a06000 	mov	r6, #0
     a54:	ef000000 	svc	0x00000000
     a58:	e8bd80e0 	pop	{r5, r6, r7, pc}

00000a5c <utee_cache_operation>:
utee_cache_operation():
     a5c:	e92d40e0 	push	{r5, r6, r7, lr}
     a60:	e3a07046 	mov	r7, #70	; 0x46
     a64:	e3a06000 	mov	r6, #0
     a68:	ef000000 	svc	0x00000000
     a6c:	e8bd80e0 	pop	{r5, r6, r7, pc}

00000a70 <_TEE_MathAPI_Init>:
_TEE_MathAPI_Init():
/home/yocto/yocto-rfpf-new/yocto-rfpf/build/tmp/work/cortexa9hf-vfp-neon-ubinux-linux-gnueabi/optee-os/2.0.0+gitAUTOINC+ca6737b41c-r0/git/lib/libutee/tee_api_arith.c:78
     a70:	b530      	push	{r4, r5, lr}
     a72:	b085      	sub	sp, #20
     a74:	4c0e      	ldr	r4, [pc, #56]	; (ab0 <_TEE_MathAPI_Init+0x40>)
/home/yocto/yocto-rfpf-new/yocto-rfpf/build/tmp/work/cortexa9hf-vfp-neon-ubinux-linux-gnueabi/optee-os/2.0.0+gitAUTOINC+ca6737b41c-r0/git/lib/libutee/tee_api_arith.c:79
     a76:	f44f 6200 	mov.w	r2, #2048	; 0x800
     a7a:	f44f 51d8 	mov.w	r1, #6912	; 0x1b00
/home/yocto/yocto-rfpf-new/yocto-rfpf/build/tmp/work/cortexa9hf-vfp-neon-ubinux-linux-gnueabi/optee-os/2.0.0+gitAUTOINC+ca6737b41c-r0/git/lib/libutee/tee_api_arith.c:78
     a7e:	4b0d      	ldr	r3, [pc, #52]	; (ab4 <_TEE_MathAPI_Init+0x44>)
/home/yocto/yocto-rfpf-new/yocto-rfpf/build/tmp/work/cortexa9hf-vfp-neon-ubinux-linux-gnueabi/optee-os/2.0.0+gitAUTOINC+ca6737b41c-r0/git/lib/libutee/tee_api_arith.c:79
     a80:	480d      	ldr	r0, [pc, #52]	; (ab8 <_TEE_MathAPI_Init+0x48>)
/home/yocto/yocto-rfpf-new/yocto-rfpf/build/tmp/work/cortexa9hf-vfp-neon-ubinux-linux-gnueabi/optee-os/2.0.0+gitAUTOINC+ca6737b41c-r0/git/lib/libutee/tee_api_arith.c:78
     a82:	447c      	add	r4, pc
     a84:	58e5      	ldr	r5, [r4, r3]
/home/yocto/yocto-rfpf-new/yocto-rfpf/build/tmp/work/cortexa9hf-vfp-neon-ubinux-linux-gnueabi/optee-os/2.0.0+gitAUTOINC+ca6737b41c-r0/git/lib/libutee/tee_api_arith.c:79
     a86:	4478      	add	r0, pc
/home/yocto/yocto-rfpf-new/yocto-rfpf/build/tmp/work/cortexa9hf-vfp-neon-ubinux-linux-gnueabi/optee-os/2.0.0+gitAUTOINC+ca6737b41c-r0/git/lib/libutee/tee_api_arith.c:78
     a88:	682b      	ldr	r3, [r5, #0]
     a8a:	9303      	str	r3, [sp, #12]
/home/yocto/yocto-rfpf-new/yocto-rfpf/build/tmp/work/cortexa9hf-vfp-neon-ubinux-linux-gnueabi/optee-os/2.0.0+gitAUTOINC+ca6737b41c-r0/git/lib/libutee/tee_api_arith.c:79
     a8c:	f004 fc66 	bl	535c <mpa_init_scratch_mem>
/home/yocto/yocto-rfpf-new/yocto-rfpf/build/tmp/work/cortexa9hf-vfp-neon-ubinux-linux-gnueabi/optee-os/2.0.0+gitAUTOINC+ca6737b41c-r0/git/lib/libutee/tee_api_arith.c:81
     a90:	9a03      	ldr	r2, [sp, #12]
     a92:	682b      	ldr	r3, [r5, #0]
     a94:	429a      	cmp	r2, r3
     a96:	d001      	beq.n	a9c <_TEE_MathAPI_Init+0x2c>
     a98:	f002 fade 	bl	3058 <__stack_chk_fail>
     a9c:	4b07      	ldr	r3, [pc, #28]	; (abc <_TEE_MathAPI_Init+0x4c>)
     a9e:	58e3      	ldr	r3, [r4, r3]
     aa0:	4618      	mov	r0, r3
     aa2:	9301      	str	r3, [sp, #4]
/home/yocto/yocto-rfpf-new/yocto-rfpf/build/tmp/work/cortexa9hf-vfp-neon-ubinux-linux-gnueabi/optee-os/2.0.0+gitAUTOINC+ca6737b41c-r0/git/lib/libutee/tee_api_arith.c:82
     aa4:	b005      	add	sp, #20
     aa6:	e8bd 4030 	ldmia.w	sp!, {r4, r5, lr}
/home/yocto/yocto-rfpf-new/yocto-rfpf/build/tmp/work/cortexa9hf-vfp-neon-ubinux-linux-gnueabi/optee-os/2.0.0+gitAUTOINC+ca6737b41c-r0/git/lib/libutee/tee_api_arith.c:81
     aaa:	f004 be7f 	b.w	57ac <mpa_set_random_generator>
     aae:	bf00      	nop
     ab0:	00007aaa 	.word	0x00007aaa
     ab4:	0000000c 	.word	0x0000000c
     ab8:	00008636 	.word	0x00008636
     abc:	00000018 	.word	0x00000018

00000ac0 <TEE_BigIntInit>:
TEE_BigIntInit():
/home/yocto/yocto-rfpf-new/yocto-rfpf/build/tmp/work/cortexa9hf-vfp-neon-ubinux-linux-gnueabi/optee-os/2.0.0+gitAUTOINC+ca6737b41c-r0/git/lib/libutee/tee_api_arith.c:88
     ac0:	4b08      	ldr	r3, [pc, #32]	; (ae4 <TEE_BigIntInit+0x24>)
     ac2:	b507      	push	{r0, r1, r2, lr}
     ac4:	4a08      	ldr	r2, [pc, #32]	; (ae8 <TEE_BigIntInit+0x28>)
     ac6:	447b      	add	r3, pc
     ac8:	589b      	ldr	r3, [r3, r2]
     aca:	681a      	ldr	r2, [r3, #0]
     acc:	9201      	str	r2, [sp, #4]
/home/yocto/yocto-rfpf-new/yocto-rfpf/build/tmp/work/cortexa9hf-vfp-neon-ubinux-linux-gnueabi/optee-os/2.0.0+gitAUTOINC+ca6737b41c-r0/git/lib/libutee/tee_api_arith.c:89
     ace:	9a01      	ldr	r2, [sp, #4]
     ad0:	681b      	ldr	r3, [r3, #0]
     ad2:	429a      	cmp	r2, r3
     ad4:	d001      	beq.n	ada <TEE_BigIntInit+0x1a>
     ad6:	f002 fabf 	bl	3058 <__stack_chk_fail>
/home/yocto/yocto-rfpf-new/yocto-rfpf/build/tmp/work/cortexa9hf-vfp-neon-ubinux-linux-gnueabi/optee-os/2.0.0+gitAUTOINC+ca6737b41c-r0/git/lib/libutee/tee_api_arith.c:90
     ada:	b003      	add	sp, #12
     adc:	f85d eb04 	ldr.w	lr, [sp], #4
/home/yocto/yocto-rfpf-new/yocto-rfpf/build/tmp/work/cortexa9hf-vfp-neon-ubinux-linux-gnueabi/optee-os/2.0.0+gitAUTOINC+ca6737b41c-r0/git/lib/libutee/tee_api_arith.c:89
     ae0:	f005 bd6e 	b.w	65c0 <mpa_init_static>
     ae4:	00007a66 	.word	0x00007a66
     ae8:	0000000c 	.word	0x0000000c

00000aec <TEE_BigIntInitFMM>:
TEE_BigIntInitFMM():
/home/yocto/yocto-rfpf-new/yocto-rfpf/build/tmp/work/cortexa9hf-vfp-neon-ubinux-linux-gnueabi/optee-os/2.0.0+gitAUTOINC+ca6737b41c-r0/git/lib/libutee/tee_api_arith.c:96
     aec:	4b0a      	ldr	r3, [pc, #40]	; (b18 <TEE_BigIntInitFMM+0x2c>)
     aee:	b507      	push	{r0, r1, r2, lr}
/home/yocto/yocto-rfpf-new/yocto-rfpf/build/tmp/work/cortexa9hf-vfp-neon-ubinux-linux-gnueabi/optee-os/2.0.0+gitAUTOINC+ca6737b41c-r0/git/lib/libutee/tee_api_arith.c:99
     af0:	0089      	lsls	r1, r1, #2
/home/yocto/yocto-rfpf-new/yocto-rfpf/build/tmp/work/cortexa9hf-vfp-neon-ubinux-linux-gnueabi/optee-os/2.0.0+gitAUTOINC+ca6737b41c-r0/git/lib/libutee/tee_api_arith.c:96
     af2:	4a0a      	ldr	r2, [pc, #40]	; (b1c <TEE_BigIntInitFMM+0x30>)
/home/yocto/yocto-rfpf-new/yocto-rfpf/build/tmp/work/cortexa9hf-vfp-neon-ubinux-linux-gnueabi/optee-os/2.0.0+gitAUTOINC+ca6737b41c-r0/git/lib/libutee/tee_api_arith.c:99
     af4:	3905      	subs	r1, #5
/home/yocto/yocto-rfpf-new/yocto-rfpf/build/tmp/work/cortexa9hf-vfp-neon-ubinux-linux-gnueabi/optee-os/2.0.0+gitAUTOINC+ca6737b41c-r0/git/lib/libutee/tee_api_arith.c:96
     af6:	447b      	add	r3, pc
/home/yocto/yocto-rfpf-new/yocto-rfpf/build/tmp/work/cortexa9hf-vfp-neon-ubinux-linux-gnueabi/optee-os/2.0.0+gitAUTOINC+ca6737b41c-r0/git/lib/libutee/tee_api_arith.c:99
     af8:	0889      	lsrs	r1, r1, #2
/home/yocto/yocto-rfpf-new/yocto-rfpf/build/tmp/work/cortexa9hf-vfp-neon-ubinux-linux-gnueabi/optee-os/2.0.0+gitAUTOINC+ca6737b41c-r0/git/lib/libutee/tee_api_arith.c:96
     afa:	589b      	ldr	r3, [r3, r2]
     afc:	681a      	ldr	r2, [r3, #0]
/home/yocto/yocto-rfpf-new/yocto-rfpf/build/tmp/work/cortexa9hf-vfp-neon-ubinux-linux-gnueabi/optee-os/2.0.0+gitAUTOINC+ca6737b41c-r0/git/lib/libutee/tee_api_arith.c:99
     afe:	6001      	str	r1, [r0, #0]
/home/yocto/yocto-rfpf-new/yocto-rfpf/build/tmp/work/cortexa9hf-vfp-neon-ubinux-linux-gnueabi/optee-os/2.0.0+gitAUTOINC+ca6737b41c-r0/git/lib/libutee/tee_api_arith.c:96
     b00:	9201      	str	r2, [sp, #4]
/home/yocto/yocto-rfpf-new/yocto-rfpf/build/tmp/work/cortexa9hf-vfp-neon-ubinux-linux-gnueabi/optee-os/2.0.0+gitAUTOINC+ca6737b41c-r0/git/lib/libutee/tee_api_arith.c:100
     b02:	2200      	movs	r2, #0
     b04:	6042      	str	r2, [r0, #4]
/home/yocto/yocto-rfpf-new/yocto-rfpf/build/tmp/work/cortexa9hf-vfp-neon-ubinux-linux-gnueabi/optee-os/2.0.0+gitAUTOINC+ca6737b41c-r0/git/lib/libutee/tee_api_arith.c:101
     b06:	9a01      	ldr	r2, [sp, #4]
     b08:	681b      	ldr	r3, [r3, #0]
     b0a:	429a      	cmp	r2, r3
     b0c:	d001      	beq.n	b12 <TEE_BigIntInitFMM+0x26>
     b0e:	f002 faa3 	bl	3058 <__stack_chk_fail>
     b12:	b003      	add	sp, #12
     b14:	f85d fb04 	ldr.w	pc, [sp], #4
     b18:	00007a36 	.word	0x00007a36
     b1c:	0000000c 	.word	0x0000000c

00000b20 <TEE_BigIntInitFMMContext>:
TEE_BigIntInitFMMContext():
/home/yocto/yocto-rfpf-new/yocto-rfpf/build/tmp/work/cortexa9hf-vfp-neon-ubinux-linux-gnueabi/optee-os/2.0.0+gitAUTOINC+ca6737b41c-r0/git/lib/libutee/tee_api_arith.c:108
     b20:	b57f      	push	{r0, r1, r2, r3, r4, r5, r6, lr}
     b22:	4616      	mov	r6, r2
     b24:	4b0d      	ldr	r3, [pc, #52]	; (b5c <TEE_BigIntInitFMMContext+0x3c>)
     b26:	4604      	mov	r4, r0
     b28:	4a0d      	ldr	r2, [pc, #52]	; (b60 <TEE_BigIntInitFMMContext+0x40>)
     b2a:	447b      	add	r3, pc
     b2c:	589d      	ldr	r5, [r3, r2]
     b2e:	682b      	ldr	r3, [r5, #0]
     b30:	9303      	str	r3, [sp, #12]
/home/yocto/yocto-rfpf-new/yocto-rfpf/build/tmp/work/cortexa9hf-vfp-neon-ubinux-linux-gnueabi/optee-os/2.0.0+gitAUTOINC+ca6737b41c-r0/git/lib/libutee/tee_api_arith.c:112
     b32:	f005 fd61 	bl	65f8 <mpa_init_static_fmm_context>
/home/yocto/yocto-rfpf-new/yocto-rfpf/build/tmp/work/cortexa9hf-vfp-neon-ubinux-linux-gnueabi/optee-os/2.0.0+gitAUTOINC+ca6737b41c-r0/git/lib/libutee/tee_api_arith.c:113
     b36:	4b0b      	ldr	r3, [pc, #44]	; (b64 <TEE_BigIntInitFMMContext+0x44>)
     b38:	4630      	mov	r0, r6
     b3a:	e9d4 1200 	ldrd	r1, r2, [r4]
     b3e:	447b      	add	r3, pc
     b40:	9300      	str	r3, [sp, #0]
     b42:	f104 0308 	add.w	r3, r4, #8
     b46:	f003 fb41 	bl	41cc <mpa_compute_fmm_context>
/home/yocto/yocto-rfpf-new/yocto-rfpf/build/tmp/work/cortexa9hf-vfp-neon-ubinux-linux-gnueabi/optee-os/2.0.0+gitAUTOINC+ca6737b41c-r0/git/lib/libutee/tee_api_arith.c:116
     b4a:	9a03      	ldr	r2, [sp, #12]
     b4c:	682b      	ldr	r3, [r5, #0]
     b4e:	429a      	cmp	r2, r3
     b50:	d001      	beq.n	b56 <TEE_BigIntInitFMMContext+0x36>
     b52:	f002 fa81 	bl	3058 <__stack_chk_fail>
     b56:	b004      	add	sp, #16
     b58:	bd70      	pop	{r4, r5, r6, pc}
     b5a:	bf00      	nop
     b5c:	00007a02 	.word	0x00007a02
     b60:	0000000c 	.word	0x0000000c
     b64:	0000857e 	.word	0x0000857e

00000b68 <TEE_BigIntFMMSizeInU32>:
TEE_BigIntFMMSizeInU32():
/home/yocto/yocto-rfpf-new/yocto-rfpf/build/tmp/work/cortexa9hf-vfp-neon-ubinux-linux-gnueabi/optee-os/2.0.0+gitAUTOINC+ca6737b41c-r0/git/lib/libutee/tee_api_arith.c:126
     b68:	4b09      	ldr	r3, [pc, #36]	; (b90 <TEE_BigIntFMMSizeInU32+0x28>)
     b6a:	b507      	push	{r0, r1, r2, lr}
/home/yocto/yocto-rfpf-new/yocto-rfpf/build/tmp/work/cortexa9hf-vfp-neon-ubinux-linux-gnueabi/optee-os/2.0.0+gitAUTOINC+ca6737b41c-r0/git/lib/libutee/tee_api_arith.c:127
     b6c:	301f      	adds	r0, #31
/home/yocto/yocto-rfpf-new/yocto-rfpf/build/tmp/work/cortexa9hf-vfp-neon-ubinux-linux-gnueabi/optee-os/2.0.0+gitAUTOINC+ca6737b41c-r0/git/lib/libutee/tee_api_arith.c:126
     b6e:	4a09      	ldr	r2, [pc, #36]	; (b94 <TEE_BigIntFMMSizeInU32+0x2c>)
/home/yocto/yocto-rfpf-new/yocto-rfpf/build/tmp/work/cortexa9hf-vfp-neon-ubinux-linux-gnueabi/optee-os/2.0.0+gitAUTOINC+ca6737b41c-r0/git/lib/libutee/tee_api_arith.c:127
     b70:	0940      	lsrs	r0, r0, #5
/home/yocto/yocto-rfpf-new/yocto-rfpf/build/tmp/work/cortexa9hf-vfp-neon-ubinux-linux-gnueabi/optee-os/2.0.0+gitAUTOINC+ca6737b41c-r0/git/lib/libutee/tee_api_arith.c:126
     b72:	447b      	add	r3, pc
/home/yocto/yocto-rfpf-new/yocto-rfpf/build/tmp/work/cortexa9hf-vfp-neon-ubinux-linux-gnueabi/optee-os/2.0.0+gitAUTOINC+ca6737b41c-r0/git/lib/libutee/tee_api_arith.c:128
     b74:	3003      	adds	r0, #3
/home/yocto/yocto-rfpf-new/yocto-rfpf/build/tmp/work/cortexa9hf-vfp-neon-ubinux-linux-gnueabi/optee-os/2.0.0+gitAUTOINC+ca6737b41c-r0/git/lib/libutee/tee_api_arith.c:126
     b76:	589b      	ldr	r3, [r3, r2]
     b78:	681a      	ldr	r2, [r3, #0]
     b7a:	9201      	str	r2, [sp, #4]
/home/yocto/yocto-rfpf-new/yocto-rfpf/build/tmp/work/cortexa9hf-vfp-neon-ubinux-linux-gnueabi/optee-os/2.0.0+gitAUTOINC+ca6737b41c-r0/git/lib/libutee/tee_api_arith.c:128
     b7c:	9a01      	ldr	r2, [sp, #4]
     b7e:	681b      	ldr	r3, [r3, #0]
     b80:	429a      	cmp	r2, r3
     b82:	d001      	beq.n	b88 <TEE_BigIntFMMSizeInU32+0x20>
     b84:	f002 fa68 	bl	3058 <__stack_chk_fail>
     b88:	b003      	add	sp, #12
     b8a:	f85d fb04 	ldr.w	pc, [sp], #4
     b8e:	bf00      	nop
     b90:	000079ba 	.word	0x000079ba
     b94:	0000000c 	.word	0x0000000c

00000b98 <TEE_BigIntFMMContextSizeInU32>:
TEE_BigIntFMMContextSizeInU32():
/home/yocto/yocto-rfpf-new/yocto-rfpf/build/tmp/work/cortexa9hf-vfp-neon-ubinux-linux-gnueabi/optee-os/2.0.0+gitAUTOINC+ca6737b41c-r0/git/lib/libutee/tee_api_arith.c:134
     b98:	4b09      	ldr	r3, [pc, #36]	; (bc0 <TEE_BigIntFMMContextSizeInU32+0x28>)
     b9a:	b507      	push	{r0, r1, r2, lr}
/home/yocto/yocto-rfpf-new/yocto-rfpf/build/tmp/work/cortexa9hf-vfp-neon-ubinux-linux-gnueabi/optee-os/2.0.0+gitAUTOINC+ca6737b41c-r0/git/lib/libutee/tee_api_arith.c:135
     b9c:	301f      	adds	r0, #31
/home/yocto/yocto-rfpf-new/yocto-rfpf/build/tmp/work/cortexa9hf-vfp-neon-ubinux-linux-gnueabi/optee-os/2.0.0+gitAUTOINC+ca6737b41c-r0/git/lib/libutee/tee_api_arith.c:134
     b9e:	4a09      	ldr	r2, [pc, #36]	; (bc4 <TEE_BigIntFMMContextSizeInU32+0x2c>)
/home/yocto/yocto-rfpf-new/yocto-rfpf/build/tmp/work/cortexa9hf-vfp-neon-ubinux-linux-gnueabi/optee-os/2.0.0+gitAUTOINC+ca6737b41c-r0/git/lib/libutee/tee_api_arith.c:135
     ba0:	0940      	lsrs	r0, r0, #5
/home/yocto/yocto-rfpf-new/yocto-rfpf/build/tmp/work/cortexa9hf-vfp-neon-ubinux-linux-gnueabi/optee-os/2.0.0+gitAUTOINC+ca6737b41c-r0/git/lib/libutee/tee_api_arith.c:134
     ba2:	447b      	add	r3, pc
/home/yocto/yocto-rfpf-new/yocto-rfpf/build/tmp/work/cortexa9hf-vfp-neon-ubinux-linux-gnueabi/optee-os/2.0.0+gitAUTOINC+ca6737b41c-r0/git/lib/libutee/tee_api_arith.c:135
     ba4:	0040      	lsls	r0, r0, #1
/home/yocto/yocto-rfpf-new/yocto-rfpf/build/tmp/work/cortexa9hf-vfp-neon-ubinux-linux-gnueabi/optee-os/2.0.0+gitAUTOINC+ca6737b41c-r0/git/lib/libutee/tee_api_arith.c:134
     ba6:	589b      	ldr	r3, [r3, r2]
/home/yocto/yocto-rfpf-new/yocto-rfpf/build/tmp/work/cortexa9hf-vfp-neon-ubinux-linux-gnueabi/optee-os/2.0.0+gitAUTOINC+ca6737b41c-r0/git/lib/libutee/tee_api_arith.c:136
     ba8:	300b      	adds	r0, #11
/home/yocto/yocto-rfpf-new/yocto-rfpf/build/tmp/work/cortexa9hf-vfp-neon-ubinux-linux-gnueabi/optee-os/2.0.0+gitAUTOINC+ca6737b41c-r0/git/lib/libutee/tee_api_arith.c:134
     baa:	681a      	ldr	r2, [r3, #0]
     bac:	9201      	str	r2, [sp, #4]
/home/yocto/yocto-rfpf-new/yocto-rfpf/build/tmp/work/cortexa9hf-vfp-neon-ubinux-linux-gnueabi/optee-os/2.0.0+gitAUTOINC+ca6737b41c-r0/git/lib/libutee/tee_api_arith.c:136
     bae:	9a01      	ldr	r2, [sp, #4]
     bb0:	681b      	ldr	r3, [r3, #0]
     bb2:	429a      	cmp	r2, r3
     bb4:	d001      	beq.n	bba <TEE_BigIntFMMContextSizeInU32+0x22>
     bb6:	f002 fa4f 	bl	3058 <__stack_chk_fail>
     bba:	b003      	add	sp, #12
     bbc:	f85d fb04 	ldr.w	pc, [sp], #4
     bc0:	0000798a 	.word	0x0000798a
     bc4:	0000000c 	.word	0x0000000c

00000bc8 <TEE_BigIntConvertFromOctetString>:
TEE_BigIntConvertFromOctetString():
/home/yocto/yocto-rfpf-new/yocto-rfpf/build/tmp/work/cortexa9hf-vfp-neon-ubinux-linux-gnueabi/optee-os/2.0.0+gitAUTOINC+ca6737b41c-r0/git/lib/libutee/tee_api_arith.c:149
     bc8:	b537      	push	{r0, r1, r2, r4, r5, lr}
/home/yocto/yocto-rfpf-new/yocto-rfpf/build/tmp/work/cortexa9hf-vfp-neon-ubinux-linux-gnueabi/optee-os/2.0.0+gitAUTOINC+ca6737b41c-r0/git/lib/libutee/tee_api_arith.c:154
     bca:	0fdb      	lsrs	r3, r3, #31
/home/yocto/yocto-rfpf-new/yocto-rfpf/build/tmp/work/cortexa9hf-vfp-neon-ubinux-linux-gnueabi/optee-os/2.0.0+gitAUTOINC+ca6737b41c-r0/git/lib/libutee/tee_api_arith.c:149
     bcc:	4c0a      	ldr	r4, [pc, #40]	; (bf8 <TEE_BigIntConvertFromOctetString+0x30>)
     bce:	4d0b      	ldr	r5, [pc, #44]	; (bfc <TEE_BigIntConvertFromOctetString+0x34>)
     bd0:	447c      	add	r4, pc
     bd2:	5964      	ldr	r4, [r4, r5]
     bd4:	6825      	ldr	r5, [r4, #0]
     bd6:	9501      	str	r5, [sp, #4]
/home/yocto/yocto-rfpf-new/yocto-rfpf/build/tmp/work/cortexa9hf-vfp-neon-ubinux-linux-gnueabi/optee-os/2.0.0+gitAUTOINC+ca6737b41c-r0/git/lib/libutee/tee_api_arith.c:154
     bd8:	f005 ff2c 	bl	6a34 <mpa_set_oct_str>
/home/yocto/yocto-rfpf-new/yocto-rfpf/build/tmp/work/cortexa9hf-vfp-neon-ubinux-linux-gnueabi/optee-os/2.0.0+gitAUTOINC+ca6737b41c-r0/git/lib/libutee/tee_api_arith.c:164
     bdc:	9a01      	ldr	r2, [sp, #4]
/home/yocto/yocto-rfpf-new/yocto-rfpf/build/tmp/work/cortexa9hf-vfp-neon-ubinux-linux-gnueabi/optee-os/2.0.0+gitAUTOINC+ca6737b41c-r0/git/lib/libutee/tee_api_arith.c:155
     bde:	2800      	cmp	r0, #0
/home/yocto/yocto-rfpf-new/yocto-rfpf/build/tmp/work/cortexa9hf-vfp-neon-ubinux-linux-gnueabi/optee-os/2.0.0+gitAUTOINC+ca6737b41c-r0/git/lib/libutee/tee_api_arith.c:164
     be0:	6823      	ldr	r3, [r4, #0]
     be2:	4804      	ldr	r0, [pc, #16]	; (bf4 <TEE_BigIntConvertFromOctetString+0x2c>)
     be4:	bf08      	it	eq
     be6:	2000      	moveq	r0, #0
     be8:	429a      	cmp	r2, r3
     bea:	d001      	beq.n	bf0 <TEE_BigIntConvertFromOctetString+0x28>
     bec:	f002 fa34 	bl	3058 <__stack_chk_fail>
     bf0:	b003      	add	sp, #12
     bf2:	bd30      	pop	{r4, r5, pc}
     bf4:	ffff300f 	.word	0xffff300f
     bf8:	0000795c 	.word	0x0000795c
     bfc:	0000000c 	.word	0x0000000c

00000c00 <TEE_BigIntConvertToOctetString>:
TEE_BigIntConvertToOctetString():
/home/yocto/yocto-rfpf-new/yocto-rfpf/build/tmp/work/cortexa9hf-vfp-neon-ubinux-linux-gnueabi/optee-os/2.0.0+gitAUTOINC+ca6737b41c-r0/git/lib/libutee/tee_api_arith.c:172
     c00:	b57f      	push	{r0, r1, r2, r3, r4, r5, r6, lr}
     c02:	460e      	mov	r6, r1
     c04:	4b18      	ldr	r3, [pc, #96]	; (c68 <TEE_BigIntConvertToOctetString+0x68>)
     c06:	4919      	ldr	r1, [pc, #100]	; (c6c <TEE_BigIntConvertToOctetString+0x6c>)
     c08:	447b      	add	r3, pc
     c0a:	585c      	ldr	r4, [r3, r1]
/home/yocto/yocto-rfpf-new/yocto-rfpf/build/tmp/work/cortexa9hf-vfp-neon-ubinux-linux-gnueabi/optee-os/2.0.0+gitAUTOINC+ca6737b41c-r0/git/lib/libutee/tee_api_arith.c:174
     c0c:	a904      	add	r1, sp, #16
/home/yocto/yocto-rfpf-new/yocto-rfpf/build/tmp/work/cortexa9hf-vfp-neon-ubinux-linux-gnueabi/optee-os/2.0.0+gitAUTOINC+ca6737b41c-r0/git/lib/libutee/tee_api_arith.c:172
     c0e:	6823      	ldr	r3, [r4, #0]
     c10:	4625      	mov	r5, r4
     c12:	9303      	str	r3, [sp, #12]
/home/yocto/yocto-rfpf-new/yocto-rfpf/build/tmp/work/cortexa9hf-vfp-neon-ubinux-linux-gnueabi/optee-os/2.0.0+gitAUTOINC+ca6737b41c-r0/git/lib/libutee/tee_api_arith.c:174
     c14:	6833      	ldr	r3, [r6, #0]
     c16:	f841 3d08 	str.w	r3, [r1, #-8]!
/home/yocto/yocto-rfpf-new/yocto-rfpf/build/tmp/work/cortexa9hf-vfp-neon-ubinux-linux-gnueabi/optee-os/2.0.0+gitAUTOINC+ca6737b41c-r0/git/lib/libutee/tee_api_arith.c:177
     c1a:	f005 ff69 	bl	6af0 <mpa_get_oct_str>
/home/yocto/yocto-rfpf-new/yocto-rfpf/build/tmp/work/cortexa9hf-vfp-neon-ubinux-linux-gnueabi/optee-os/2.0.0+gitAUTOINC+ca6737b41c-r0/git/lib/libutee/tee_api_arith.c:180
     c1e:	4b11      	ldr	r3, [pc, #68]	; (c64 <TEE_BigIntConvertToOctetString+0x64>)
     c20:	2800      	cmp	r0, #0
/home/yocto/yocto-rfpf-new/yocto-rfpf/build/tmp/work/cortexa9hf-vfp-neon-ubinux-linux-gnueabi/optee-os/2.0.0+gitAUTOINC+ca6737b41c-r0/git/lib/libutee/tee_api_arith.c:182
     c22:	9a02      	ldr	r2, [sp, #8]
/home/yocto/yocto-rfpf-new/yocto-rfpf/build/tmp/work/cortexa9hf-vfp-neon-ubinux-linux-gnueabi/optee-os/2.0.0+gitAUTOINC+ca6737b41c-r0/git/lib/libutee/tee_api_arith.c:180
     c24:	bf0c      	ite	eq
     c26:	2400      	moveq	r4, #0
     c28:	461c      	movne	r4, r3
/home/yocto/yocto-rfpf-new/yocto-rfpf/build/tmp/work/cortexa9hf-vfp-neon-ubinux-linux-gnueabi/optee-os/2.0.0+gitAUTOINC+ca6737b41c-r0/git/lib/libutee/tee_api_arith.c:182
     c2a:	6032      	str	r2, [r6, #0]
/home/yocto/yocto-rfpf-new/yocto-rfpf/build/tmp/work/cortexa9hf-vfp-neon-ubinux-linux-gnueabi/optee-os/2.0.0+gitAUTOINC+ca6737b41c-r0/git/lib/libutee/tee_api_arith.c:184
     c2c:	b184      	cbz	r4, c50 <TEE_BigIntConvertToOctetString+0x50>
/home/yocto/yocto-rfpf-new/yocto-rfpf/build/tmp/work/cortexa9hf-vfp-neon-ubinux-linux-gnueabi/optee-os/2.0.0+gitAUTOINC+ca6737b41c-r0/git/lib/libutee/tee_api_arith.c:184 (discriminator 1)
     c2e:	429c      	cmp	r4, r3
     c30:	d00e      	beq.n	c50 <TEE_BigIntConvertToOctetString+0x50>
/home/yocto/yocto-rfpf-new/yocto-rfpf/build/tmp/work/cortexa9hf-vfp-neon-ubinux-linux-gnueabi/optee-os/2.0.0+gitAUTOINC+ca6737b41c-r0/git/lib/libutee/tee_api_arith.c:186
     c32:	4b0f      	ldr	r3, [pc, #60]	; (c70 <TEE_BigIntConvertToOctetString+0x70>)
     c34:	21ba      	movs	r1, #186	; 0xba
     c36:	480f      	ldr	r0, [pc, #60]	; (c74 <TEE_BigIntConvertToOctetString+0x74>)
     c38:	447b      	add	r3, pc
     c3a:	4478      	add	r0, pc
     c3c:	e9cd 3400 	strd	r3, r4, [sp]
     c40:	2301      	movs	r3, #1
     c42:	3011      	adds	r0, #17
     c44:	461a      	mov	r2, r3
     c46:	f002 fee9 	bl	3a1c <trace_printf>
     c4a:	4620      	mov	r0, r4
     c4c:	f000 ffb6 	bl	1bbc <__TEE_Panic>
/home/yocto/yocto-rfpf-new/yocto-rfpf/build/tmp/work/cortexa9hf-vfp-neon-ubinux-linux-gnueabi/optee-os/2.0.0+gitAUTOINC+ca6737b41c-r0/git/lib/libutee/tee_api_arith.c:189
     c50:	9a03      	ldr	r2, [sp, #12]
     c52:	4620      	mov	r0, r4
     c54:	682b      	ldr	r3, [r5, #0]
     c56:	429a      	cmp	r2, r3
     c58:	d001      	beq.n	c5e <TEE_BigIntConvertToOctetString+0x5e>
     c5a:	f002 f9fd 	bl	3058 <__stack_chk_fail>
     c5e:	b004      	add	sp, #16
     c60:	bd70      	pop	{r4, r5, r6, pc}
     c62:	bf00      	nop
     c64:	ffff0010 	.word	0xffff0010
     c68:	00007924 	.word	0x00007924
     c6c:	0000000c 	.word	0x0000000c
     c70:	00007130 	.word	0x00007130
     c74:	00007139 	.word	0x00007139

00000c78 <TEE_BigIntConvertFromS32>:
TEE_BigIntConvertFromS32():
/home/yocto/yocto-rfpf-new/yocto-rfpf/build/tmp/work/cortexa9hf-vfp-neon-ubinux-linux-gnueabi/optee-os/2.0.0+gitAUTOINC+ca6737b41c-r0/git/lib/libutee/tee_api_arith.c:195
     c78:	4b08      	ldr	r3, [pc, #32]	; (c9c <TEE_BigIntConvertFromS32+0x24>)
     c7a:	b507      	push	{r0, r1, r2, lr}
     c7c:	4a08      	ldr	r2, [pc, #32]	; (ca0 <TEE_BigIntConvertFromS32+0x28>)
     c7e:	447b      	add	r3, pc
     c80:	589b      	ldr	r3, [r3, r2]
     c82:	681a      	ldr	r2, [r3, #0]
     c84:	9201      	str	r2, [sp, #4]
/home/yocto/yocto-rfpf-new/yocto-rfpf/build/tmp/work/cortexa9hf-vfp-neon-ubinux-linux-gnueabi/optee-os/2.0.0+gitAUTOINC+ca6737b41c-r0/git/lib/libutee/tee_api_arith.c:199
     c86:	9a01      	ldr	r2, [sp, #4]
     c88:	681b      	ldr	r3, [r3, #0]
     c8a:	429a      	cmp	r2, r3
     c8c:	d001      	beq.n	c92 <TEE_BigIntConvertFromS32+0x1a>
     c8e:	f002 f9e3 	bl	3058 <__stack_chk_fail>
/home/yocto/yocto-rfpf-new/yocto-rfpf/build/tmp/work/cortexa9hf-vfp-neon-ubinux-linux-gnueabi/optee-os/2.0.0+gitAUTOINC+ca6737b41c-r0/git/lib/libutee/tee_api_arith.c:203
     c92:	b003      	add	sp, #12
     c94:	f85d eb04 	ldr.w	lr, [sp], #4
/home/yocto/yocto-rfpf-new/yocto-rfpf/build/tmp/work/cortexa9hf-vfp-neon-ubinux-linux-gnueabi/optee-os/2.0.0+gitAUTOINC+ca6737b41c-r0/git/lib/libutee/tee_api_arith.c:199
     c98:	f003 bc84 	b.w	45a4 <mpa_set_S32>
     c9c:	000078ae 	.word	0x000078ae
     ca0:	0000000c 	.word	0x0000000c

00000ca4 <TEE_BigIntConvertToS32>:
TEE_BigIntConvertToS32():
/home/yocto/yocto-rfpf-new/yocto-rfpf/build/tmp/work/cortexa9hf-vfp-neon-ubinux-linux-gnueabi/optee-os/2.0.0+gitAUTOINC+ca6737b41c-r0/git/lib/libutee/tee_api_arith.c:209
     ca4:	4b0b      	ldr	r3, [pc, #44]	; (cd4 <TEE_BigIntConvertToS32+0x30>)
     ca6:	4a0c      	ldr	r2, [pc, #48]	; (cd8 <TEE_BigIntConvertToS32+0x34>)
     ca8:	b513      	push	{r0, r1, r4, lr}
     caa:	447b      	add	r3, pc
     cac:	589c      	ldr	r4, [r3, r2]
     cae:	6823      	ldr	r3, [r4, #0]
     cb0:	9301      	str	r3, [sp, #4]
/home/yocto/yocto-rfpf-new/yocto-rfpf/build/tmp/work/cortexa9hf-vfp-neon-ubinux-linux-gnueabi/optee-os/2.0.0+gitAUTOINC+ca6737b41c-r0/git/lib/libutee/tee_api_arith.c:213
     cb2:	f003 fc99 	bl	45e8 <mpa_get_S32>
/home/yocto/yocto-rfpf-new/yocto-rfpf/build/tmp/work/cortexa9hf-vfp-neon-ubinux-linux-gnueabi/optee-os/2.0.0+gitAUTOINC+ca6737b41c-r0/git/lib/libutee/tee_api_arith.c:223
     cb6:	9a01      	ldr	r2, [sp, #4]
/home/yocto/yocto-rfpf-new/yocto-rfpf/build/tmp/work/cortexa9hf-vfp-neon-ubinux-linux-gnueabi/optee-os/2.0.0+gitAUTOINC+ca6737b41c-r0/git/lib/libutee/tee_api_arith.c:216
     cb8:	2800      	cmp	r0, #0
/home/yocto/yocto-rfpf-new/yocto-rfpf/build/tmp/work/cortexa9hf-vfp-neon-ubinux-linux-gnueabi/optee-os/2.0.0+gitAUTOINC+ca6737b41c-r0/git/lib/libutee/tee_api_arith.c:223
     cba:	6823      	ldr	r3, [r4, #0]
     cbc:	4804      	ldr	r0, [pc, #16]	; (cd0 <TEE_BigIntConvertToS32+0x2c>)
     cbe:	bf08      	it	eq
     cc0:	2000      	moveq	r0, #0
     cc2:	429a      	cmp	r2, r3
     cc4:	d001      	beq.n	cca <TEE_BigIntConvertToS32+0x26>
     cc6:	f002 f9c7 	bl	3058 <__stack_chk_fail>
     cca:	b002      	add	sp, #8
     ccc:	bd10      	pop	{r4, pc}
     cce:	bf00      	nop
     cd0:	ffff300f 	.word	0xffff300f
     cd4:	00007882 	.word	0x00007882
     cd8:	0000000c 	.word	0x0000000c

00000cdc <TEE_BigIntCmp>:
TEE_BigIntCmp():
/home/yocto/yocto-rfpf-new/yocto-rfpf/build/tmp/work/cortexa9hf-vfp-neon-ubinux-linux-gnueabi/optee-os/2.0.0+gitAUTOINC+ca6737b41c-r0/git/lib/libutee/tee_api_arith.c:233
     cdc:	4b08      	ldr	r3, [pc, #32]	; (d00 <TEE_BigIntCmp+0x24>)
     cde:	b507      	push	{r0, r1, r2, lr}
     ce0:	4a08      	ldr	r2, [pc, #32]	; (d04 <TEE_BigIntCmp+0x28>)
     ce2:	447b      	add	r3, pc
     ce4:	589b      	ldr	r3, [r3, r2]
     ce6:	681a      	ldr	r2, [r3, #0]
     ce8:	9201      	str	r2, [sp, #4]
/home/yocto/yocto-rfpf-new/yocto-rfpf/build/tmp/work/cortexa9hf-vfp-neon-ubinux-linux-gnueabi/optee-os/2.0.0+gitAUTOINC+ca6737b41c-r0/git/lib/libutee/tee_api_arith.c:237
     cea:	9a01      	ldr	r2, [sp, #4]
     cec:	681b      	ldr	r3, [r3, #0]
     cee:	429a      	cmp	r2, r3
     cf0:	d001      	beq.n	cf6 <TEE_BigIntCmp+0x1a>
     cf2:	f002 f9b1 	bl	3058 <__stack_chk_fail>
/home/yocto/yocto-rfpf-new/yocto-rfpf/build/tmp/work/cortexa9hf-vfp-neon-ubinux-linux-gnueabi/optee-os/2.0.0+gitAUTOINC+ca6737b41c-r0/git/lib/libutee/tee_api_arith.c:238
     cf6:	b003      	add	sp, #12
     cf8:	f85d eb04 	ldr.w	lr, [sp], #4
/home/yocto/yocto-rfpf-new/yocto-rfpf/build/tmp/work/cortexa9hf-vfp-neon-ubinux-linux-gnueabi/optee-os/2.0.0+gitAUTOINC+ca6737b41c-r0/git/lib/libutee/tee_api_arith.c:237
     cfc:	f005 bb62 	b.w	63c4 <mpa_cmp>
     d00:	0000784a 	.word	0x0000784a
     d04:	0000000c 	.word	0x0000000c

00000d08 <TEE_BigIntCmpS32>:
TEE_BigIntCmpS32():
/home/yocto/yocto-rfpf-new/yocto-rfpf/build/tmp/work/cortexa9hf-vfp-neon-ubinux-linux-gnueabi/optee-os/2.0.0+gitAUTOINC+ca6737b41c-r0/git/lib/libutee/tee_api_arith.c:244
     d08:	4b08      	ldr	r3, [pc, #32]	; (d2c <TEE_BigIntCmpS32+0x24>)
     d0a:	b507      	push	{r0, r1, r2, lr}
     d0c:	4a08      	ldr	r2, [pc, #32]	; (d30 <TEE_BigIntCmpS32+0x28>)
     d0e:	447b      	add	r3, pc
     d10:	589b      	ldr	r3, [r3, r2]
     d12:	681a      	ldr	r2, [r3, #0]
     d14:	9201      	str	r2, [sp, #4]
/home/yocto/yocto-rfpf-new/yocto-rfpf/build/tmp/work/cortexa9hf-vfp-neon-ubinux-linux-gnueabi/optee-os/2.0.0+gitAUTOINC+ca6737b41c-r0/git/lib/libutee/tee_api_arith.c:247
     d16:	9a01      	ldr	r2, [sp, #4]
     d18:	681b      	ldr	r3, [r3, #0]
     d1a:	429a      	cmp	r2, r3
     d1c:	d001      	beq.n	d22 <TEE_BigIntCmpS32+0x1a>
     d1e:	f002 f99b 	bl	3058 <__stack_chk_fail>
/home/yocto/yocto-rfpf-new/yocto-rfpf/build/tmp/work/cortexa9hf-vfp-neon-ubinux-linux-gnueabi/optee-os/2.0.0+gitAUTOINC+ca6737b41c-r0/git/lib/libutee/tee_api_arith.c:248
     d22:	b003      	add	sp, #12
     d24:	f85d eb04 	ldr.w	lr, [sp], #4
/home/yocto/yocto-rfpf-new/yocto-rfpf/build/tmp/work/cortexa9hf-vfp-neon-ubinux-linux-gnueabi/optee-os/2.0.0+gitAUTOINC+ca6737b41c-r0/git/lib/libutee/tee_api_arith.c:247
     d28:	f005 bb82 	b.w	6430 <mpa_cmp_short>
     d2c:	0000781e 	.word	0x0000781e
     d30:	0000000c 	.word	0x0000000c

00000d34 <TEE_BigIntShiftRight>:
TEE_BigIntShiftRight():
/home/yocto/yocto-rfpf-new/yocto-rfpf/build/tmp/work/cortexa9hf-vfp-neon-ubinux-linux-gnueabi/optee-os/2.0.0+gitAUTOINC+ca6737b41c-r0/git/lib/libutee/tee_api_arith.c:255
     d34:	4b08      	ldr	r3, [pc, #32]	; (d58 <TEE_BigIntShiftRight+0x24>)
     d36:	b513      	push	{r0, r1, r4, lr}
     d38:	4c08      	ldr	r4, [pc, #32]	; (d5c <TEE_BigIntShiftRight+0x28>)
     d3a:	447b      	add	r3, pc
     d3c:	591b      	ldr	r3, [r3, r4]
     d3e:	681c      	ldr	r4, [r3, #0]
     d40:	9401      	str	r4, [sp, #4]
/home/yocto/yocto-rfpf-new/yocto-rfpf/build/tmp/work/cortexa9hf-vfp-neon-ubinux-linux-gnueabi/optee-os/2.0.0+gitAUTOINC+ca6737b41c-r0/git/lib/libutee/tee_api_arith.c:259
     d42:	9c01      	ldr	r4, [sp, #4]
     d44:	681b      	ldr	r3, [r3, #0]
     d46:	429c      	cmp	r4, r3
     d48:	d001      	beq.n	d4e <TEE_BigIntShiftRight+0x1a>
     d4a:	f002 f985 	bl	3058 <__stack_chk_fail>
/home/yocto/yocto-rfpf-new/yocto-rfpf/build/tmp/work/cortexa9hf-vfp-neon-ubinux-linux-gnueabi/optee-os/2.0.0+gitAUTOINC+ca6737b41c-r0/git/lib/libutee/tee_api_arith.c:260
     d4e:	b002      	add	sp, #8
     d50:	e8bd 4010 	ldmia.w	sp!, {r4, lr}
/home/yocto/yocto-rfpf-new/yocto-rfpf/build/tmp/work/cortexa9hf-vfp-neon-ubinux-linux-gnueabi/optee-os/2.0.0+gitAUTOINC+ca6737b41c-r0/git/lib/libutee/tee_api_arith.c:259
     d54:	f004 beb0 	b.w	5ab8 <mpa_shift_right>
     d58:	000077f2 	.word	0x000077f2
     d5c:	0000000c 	.word	0x0000000c

00000d60 <TEE_BigIntGetBit>:
TEE_BigIntGetBit():
/home/yocto/yocto-rfpf-new/yocto-rfpf/build/tmp/work/cortexa9hf-vfp-neon-ubinux-linux-gnueabi/optee-os/2.0.0+gitAUTOINC+ca6737b41c-r0/git/lib/libutee/tee_api_arith.c:266
     d60:	4b09      	ldr	r3, [pc, #36]	; (d88 <TEE_BigIntGetBit+0x28>)
     d62:	4a0a      	ldr	r2, [pc, #40]	; (d8c <TEE_BigIntGetBit+0x2c>)
     d64:	b513      	push	{r0, r1, r4, lr}
     d66:	447b      	add	r3, pc
     d68:	589c      	ldr	r4, [r3, r2]
     d6a:	6823      	ldr	r3, [r4, #0]
     d6c:	9301      	str	r3, [sp, #4]
/home/yocto/yocto-rfpf-new/yocto-rfpf/build/tmp/work/cortexa9hf-vfp-neon-ubinux-linux-gnueabi/optee-os/2.0.0+gitAUTOINC+ca6737b41c-r0/git/lib/libutee/tee_api_arith.c:269
     d6e:	f003 f8bd 	bl	3eec <mpa_get_bit>
/home/yocto/yocto-rfpf-new/yocto-rfpf/build/tmp/work/cortexa9hf-vfp-neon-ubinux-linux-gnueabi/optee-os/2.0.0+gitAUTOINC+ca6737b41c-r0/git/lib/libutee/tee_api_arith.c:270
     d72:	9a01      	ldr	r2, [sp, #4]
     d74:	3000      	adds	r0, #0
     d76:	6823      	ldr	r3, [r4, #0]
     d78:	bf18      	it	ne
     d7a:	2001      	movne	r0, #1
     d7c:	429a      	cmp	r2, r3
     d7e:	d001      	beq.n	d84 <TEE_BigIntGetBit+0x24>
     d80:	f002 f96a 	bl	3058 <__stack_chk_fail>
     d84:	b002      	add	sp, #8
     d86:	bd10      	pop	{r4, pc}
     d88:	000077c6 	.word	0x000077c6
     d8c:	0000000c 	.word	0x0000000c

00000d90 <TEE_BigIntGetBitCount>:
TEE_BigIntGetBitCount():
/home/yocto/yocto-rfpf-new/yocto-rfpf/build/tmp/work/cortexa9hf-vfp-neon-ubinux-linux-gnueabi/optee-os/2.0.0+gitAUTOINC+ca6737b41c-r0/git/lib/libutee/tee_api_arith.c:276
     d90:	4b08      	ldr	r3, [pc, #32]	; (db4 <TEE_BigIntGetBitCount+0x24>)
     d92:	4a09      	ldr	r2, [pc, #36]	; (db8 <TEE_BigIntGetBitCount+0x28>)
     d94:	b513      	push	{r0, r1, r4, lr}
     d96:	447b      	add	r3, pc
     d98:	589c      	ldr	r4, [r3, r2]
     d9a:	6823      	ldr	r3, [r4, #0]
     d9c:	9301      	str	r3, [sp, #4]
/home/yocto/yocto-rfpf-new/yocto-rfpf/build/tmp/work/cortexa9hf-vfp-neon-ubinux-linux-gnueabi/optee-os/2.0.0+gitAUTOINC+ca6737b41c-r0/git/lib/libutee/tee_api_arith.c:279
     d9e:	f003 f87b 	bl	3e98 <mpa_highest_bit_index>
/home/yocto/yocto-rfpf-new/yocto-rfpf/build/tmp/work/cortexa9hf-vfp-neon-ubinux-linux-gnueabi/optee-os/2.0.0+gitAUTOINC+ca6737b41c-r0/git/lib/libutee/tee_api_arith.c:280
     da2:	9a01      	ldr	r2, [sp, #4]
     da4:	3001      	adds	r0, #1
     da6:	6823      	ldr	r3, [r4, #0]
     da8:	429a      	cmp	r2, r3
     daa:	d001      	beq.n	db0 <TEE_BigIntGetBitCount+0x20>
     dac:	f002 f954 	bl	3058 <__stack_chk_fail>
     db0:	b002      	add	sp, #8
     db2:	bd10      	pop	{r4, pc}
     db4:	00007796 	.word	0x00007796
     db8:	0000000c 	.word	0x0000000c

00000dbc <TEE_BigIntAdd>:
TEE_BigIntAdd():
/home/yocto/yocto-rfpf-new/yocto-rfpf/build/tmp/work/cortexa9hf-vfp-neon-ubinux-linux-gnueabi/optee-os/2.0.0+gitAUTOINC+ca6737b41c-r0/git/lib/libutee/tee_api_arith.c:291
     dbc:	4b09      	ldr	r3, [pc, #36]	; (de4 <TEE_BigIntAdd+0x28>)
     dbe:	b513      	push	{r0, r1, r4, lr}
     dc0:	4c09      	ldr	r4, [pc, #36]	; (de8 <TEE_BigIntAdd+0x2c>)
     dc2:	447b      	add	r3, pc
     dc4:	591b      	ldr	r3, [r3, r4]
     dc6:	681c      	ldr	r4, [r3, #0]
     dc8:	9401      	str	r4, [sp, #4]
/home/yocto/yocto-rfpf-new/yocto-rfpf/build/tmp/work/cortexa9hf-vfp-neon-ubinux-linux-gnueabi/optee-os/2.0.0+gitAUTOINC+ca6737b41c-r0/git/lib/libutee/tee_api_arith.c:296
     dca:	9c01      	ldr	r4, [sp, #4]
     dcc:	681b      	ldr	r3, [r3, #0]
     dce:	429c      	cmp	r4, r3
     dd0:	d001      	beq.n	dd6 <TEE_BigIntAdd+0x1a>
     dd2:	f002 f941 	bl	3058 <__stack_chk_fail>
     dd6:	4b05      	ldr	r3, [pc, #20]	; (dec <TEE_BigIntAdd+0x30>)
     dd8:	447b      	add	r3, pc
/home/yocto/yocto-rfpf-new/yocto-rfpf/build/tmp/work/cortexa9hf-vfp-neon-ubinux-linux-gnueabi/optee-os/2.0.0+gitAUTOINC+ca6737b41c-r0/git/lib/libutee/tee_api_arith.c:297
     dda:	b002      	add	sp, #8
     ddc:	e8bd 4010 	ldmia.w	sp!, {r4, lr}
/home/yocto/yocto-rfpf-new/yocto-rfpf/build/tmp/work/cortexa9hf-vfp-neon-ubinux-linux-gnueabi/optee-os/2.0.0+gitAUTOINC+ca6737b41c-r0/git/lib/libutee/tee_api_arith.c:296
     de0:	f005 b864 	b.w	5eac <mpa_add>
     de4:	0000776a 	.word	0x0000776a
     de8:	0000000c 	.word	0x0000000c
     dec:	000082e4 	.word	0x000082e4

00000df0 <TEE_BigIntSub>:
TEE_BigIntSub():
/home/yocto/yocto-rfpf-new/yocto-rfpf/build/tmp/work/cortexa9hf-vfp-neon-ubinux-linux-gnueabi/optee-os/2.0.0+gitAUTOINC+ca6737b41c-r0/git/lib/libutee/tee_api_arith.c:304
     df0:	4b09      	ldr	r3, [pc, #36]	; (e18 <TEE_BigIntSub+0x28>)
     df2:	b513      	push	{r0, r1, r4, lr}
     df4:	4c09      	ldr	r4, [pc, #36]	; (e1c <TEE_BigIntSub+0x2c>)
     df6:	447b      	add	r3, pc
     df8:	591b      	ldr	r3, [r3, r4]
     dfa:	681c      	ldr	r4, [r3, #0]
     dfc:	9401      	str	r4, [sp, #4]
/home/yocto/yocto-rfpf-new/yocto-rfpf/build/tmp/work/cortexa9hf-vfp-neon-ubinux-linux-gnueabi/optee-os/2.0.0+gitAUTOINC+ca6737b41c-r0/git/lib/libutee/tee_api_arith.c:309
     dfe:	9c01      	ldr	r4, [sp, #4]
     e00:	681b      	ldr	r3, [r3, #0]
     e02:	429c      	cmp	r4, r3
     e04:	d001      	beq.n	e0a <TEE_BigIntSub+0x1a>
     e06:	f002 f927 	bl	3058 <__stack_chk_fail>
     e0a:	4b05      	ldr	r3, [pc, #20]	; (e20 <TEE_BigIntSub+0x30>)
     e0c:	447b      	add	r3, pc
/home/yocto/yocto-rfpf-new/yocto-rfpf/build/tmp/work/cortexa9hf-vfp-neon-ubinux-linux-gnueabi/optee-os/2.0.0+gitAUTOINC+ca6737b41c-r0/git/lib/libutee/tee_api_arith.c:310
     e0e:	b002      	add	sp, #8
     e10:	e8bd 4010 	ldmia.w	sp!, {r4, lr}
/home/yocto/yocto-rfpf-new/yocto-rfpf/build/tmp/work/cortexa9hf-vfp-neon-ubinux-linux-gnueabi/optee-os/2.0.0+gitAUTOINC+ca6737b41c-r0/git/lib/libutee/tee_api_arith.c:309
     e14:	f005 b8d4 	b.w	5fc0 <mpa_sub>
     e18:	00007736 	.word	0x00007736
     e1c:	0000000c 	.word	0x0000000c
     e20:	000082b0 	.word	0x000082b0

00000e24 <TEE_BigIntNeg>:
TEE_BigIntNeg():
/home/yocto/yocto-rfpf-new/yocto-rfpf/build/tmp/work/cortexa9hf-vfp-neon-ubinux-linux-gnueabi/optee-os/2.0.0+gitAUTOINC+ca6737b41c-r0/git/lib/libutee/tee_api_arith.c:316
     e24:	4b08      	ldr	r3, [pc, #32]	; (e48 <TEE_BigIntNeg+0x24>)
     e26:	b507      	push	{r0, r1, r2, lr}
     e28:	4a08      	ldr	r2, [pc, #32]	; (e4c <TEE_BigIntNeg+0x28>)
     e2a:	447b      	add	r3, pc
     e2c:	589b      	ldr	r3, [r3, r2]
     e2e:	681a      	ldr	r2, [r3, #0]
     e30:	9201      	str	r2, [sp, #4]
/home/yocto/yocto-rfpf-new/yocto-rfpf/build/tmp/work/cortexa9hf-vfp-neon-ubinux-linux-gnueabi/optee-os/2.0.0+gitAUTOINC+ca6737b41c-r0/git/lib/libutee/tee_api_arith.c:320
     e32:	9a01      	ldr	r2, [sp, #4]
     e34:	681b      	ldr	r3, [r3, #0]
     e36:	429a      	cmp	r2, r3
     e38:	d001      	beq.n	e3e <TEE_BigIntNeg+0x1a>
     e3a:	f002 f90d 	bl	3058 <__stack_chk_fail>
/home/yocto/yocto-rfpf-new/yocto-rfpf/build/tmp/work/cortexa9hf-vfp-neon-ubinux-linux-gnueabi/optee-os/2.0.0+gitAUTOINC+ca6737b41c-r0/git/lib/libutee/tee_api_arith.c:321
     e3e:	b003      	add	sp, #12
     e40:	f85d eb04 	ldr.w	lr, [sp], #4
/home/yocto/yocto-rfpf-new/yocto-rfpf/build/tmp/work/cortexa9hf-vfp-neon-ubinux-linux-gnueabi/optee-os/2.0.0+gitAUTOINC+ca6737b41c-r0/git/lib/libutee/tee_api_arith.c:320
     e44:	f005 b954 	b.w	60f0 <mpa_neg>
     e48:	00007702 	.word	0x00007702
     e4c:	0000000c 	.word	0x0000000c

00000e50 <TEE_BigIntMul>:
TEE_BigIntMul():
/home/yocto/yocto-rfpf-new/yocto-rfpf/build/tmp/work/cortexa9hf-vfp-neon-ubinux-linux-gnueabi/optee-os/2.0.0+gitAUTOINC+ca6737b41c-r0/git/lib/libutee/tee_api_arith.c:328
     e50:	4b09      	ldr	r3, [pc, #36]	; (e78 <TEE_BigIntMul+0x28>)
     e52:	b513      	push	{r0, r1, r4, lr}
     e54:	4c09      	ldr	r4, [pc, #36]	; (e7c <TEE_BigIntMul+0x2c>)
     e56:	447b      	add	r3, pc
     e58:	591b      	ldr	r3, [r3, r4]
     e5a:	681c      	ldr	r4, [r3, #0]
     e5c:	9401      	str	r4, [sp, #4]
/home/yocto/yocto-rfpf-new/yocto-rfpf/build/tmp/work/cortexa9hf-vfp-neon-ubinux-linux-gnueabi/optee-os/2.0.0+gitAUTOINC+ca6737b41c-r0/git/lib/libutee/tee_api_arith.c:333
     e5e:	9c01      	ldr	r4, [sp, #4]
     e60:	681b      	ldr	r3, [r3, #0]
     e62:	429c      	cmp	r4, r3
     e64:	d001      	beq.n	e6a <TEE_BigIntMul+0x1a>
     e66:	f002 f8f7 	bl	3058 <__stack_chk_fail>
     e6a:	4b05      	ldr	r3, [pc, #20]	; (e80 <TEE_BigIntMul+0x30>)
     e6c:	447b      	add	r3, pc
/home/yocto/yocto-rfpf-new/yocto-rfpf/build/tmp/work/cortexa9hf-vfp-neon-ubinux-linux-gnueabi/optee-os/2.0.0+gitAUTOINC+ca6737b41c-r0/git/lib/libutee/tee_api_arith.c:334
     e6e:	b002      	add	sp, #8
     e70:	e8bd 4010 	ldmia.w	sp!, {r4, lr}
/home/yocto/yocto-rfpf-new/yocto-rfpf/build/tmp/work/cortexa9hf-vfp-neon-ubinux-linux-gnueabi/optee-os/2.0.0+gitAUTOINC+ca6737b41c-r0/git/lib/libutee/tee_api_arith.c:333
     e74:	f004 bbfc 	b.w	5670 <mpa_mul>
     e78:	000076d6 	.word	0x000076d6
     e7c:	0000000c 	.word	0x0000000c
     e80:	00008250 	.word	0x00008250

00000e84 <TEE_BigIntSquare>:
TEE_BigIntSquare():
/home/yocto/yocto-rfpf-new/yocto-rfpf/build/tmp/work/cortexa9hf-vfp-neon-ubinux-linux-gnueabi/optee-os/2.0.0+gitAUTOINC+ca6737b41c-r0/git/lib/libutee/tee_api_arith.c:340
     e84:	4b0a      	ldr	r3, [pc, #40]	; (eb0 <TEE_BigIntSquare+0x2c>)
     e86:	460a      	mov	r2, r1
     e88:	b513      	push	{r0, r1, r4, lr}
     e8a:	4c0a      	ldr	r4, [pc, #40]	; (eb4 <TEE_BigIntSquare+0x30>)
     e8c:	447b      	add	r3, pc
     e8e:	591b      	ldr	r3, [r3, r4]
     e90:	681c      	ldr	r4, [r3, #0]
     e92:	9401      	str	r4, [sp, #4]
/home/yocto/yocto-rfpf-new/yocto-rfpf/build/tmp/work/cortexa9hf-vfp-neon-ubinux-linux-gnueabi/optee-os/2.0.0+gitAUTOINC+ca6737b41c-r0/git/lib/libutee/tee_api_arith.c:344
     e94:	9c01      	ldr	r4, [sp, #4]
     e96:	681b      	ldr	r3, [r3, #0]
     e98:	429c      	cmp	r4, r3
     e9a:	d001      	beq.n	ea0 <TEE_BigIntSquare+0x1c>
     e9c:	f002 f8dc 	bl	3058 <__stack_chk_fail>
     ea0:	4b05      	ldr	r3, [pc, #20]	; (eb8 <TEE_BigIntSquare+0x34>)
     ea2:	447b      	add	r3, pc
/home/yocto/yocto-rfpf-new/yocto-rfpf/build/tmp/work/cortexa9hf-vfp-neon-ubinux-linux-gnueabi/optee-os/2.0.0+gitAUTOINC+ca6737b41c-r0/git/lib/libutee/tee_api_arith.c:345
     ea4:	b002      	add	sp, #8
     ea6:	e8bd 4010 	ldmia.w	sp!, {r4, lr}
/home/yocto/yocto-rfpf-new/yocto-rfpf/build/tmp/work/cortexa9hf-vfp-neon-ubinux-linux-gnueabi/optee-os/2.0.0+gitAUTOINC+ca6737b41c-r0/git/lib/libutee/tee_api_arith.c:344
     eaa:	f004 bbe1 	b.w	5670 <mpa_mul>
     eae:	bf00      	nop
     eb0:	000076a0 	.word	0x000076a0
     eb4:	0000000c 	.word	0x0000000c
     eb8:	0000821a 	.word	0x0000821a

00000ebc <TEE_BigIntDiv>:
TEE_BigIntDiv():
/home/yocto/yocto-rfpf-new/yocto-rfpf/build/tmp/work/cortexa9hf-vfp-neon-ubinux-linux-gnueabi/optee-os/2.0.0+gitAUTOINC+ca6737b41c-r0/git/lib/libutee/tee_api_arith.c:352
     ebc:	e92d 41ff 	stmdb	sp!, {r0, r1, r2, r3, r4, r5, r6, r7, r8, lr}
     ec0:	461d      	mov	r5, r3
     ec2:	4b12      	ldr	r3, [pc, #72]	; (f0c <TEE_BigIntDiv+0x50>)
     ec4:	4690      	mov	r8, r2
     ec6:	4606      	mov	r6, r0
     ec8:	4a11      	ldr	r2, [pc, #68]	; (f10 <TEE_BigIntDiv+0x54>)
     eca:	460f      	mov	r7, r1
TEE_BigIntCmpS32():
/home/yocto/yocto-rfpf-new/yocto-rfpf/build/tmp/work/cortexa9hf-vfp-neon-ubinux-linux-gnueabi/optee-os/2.0.0+gitAUTOINC+ca6737b41c-r0/git/lib/libutee/tee_api_arith.c:247
     ecc:	4628      	mov	r0, r5
     ece:	2100      	movs	r1, #0
TEE_BigIntDiv():
/home/yocto/yocto-rfpf-new/yocto-rfpf/build/tmp/work/cortexa9hf-vfp-neon-ubinux-linux-gnueabi/optee-os/2.0.0+gitAUTOINC+ca6737b41c-r0/git/lib/libutee/tee_api_arith.c:352
     ed0:	447b      	add	r3, pc
     ed2:	589c      	ldr	r4, [r3, r2]
     ed4:	6823      	ldr	r3, [r4, #0]
     ed6:	9303      	str	r3, [sp, #12]
TEE_BigIntCmpS32():
/home/yocto/yocto-rfpf-new/yocto-rfpf/build/tmp/work/cortexa9hf-vfp-neon-ubinux-linux-gnueabi/optee-os/2.0.0+gitAUTOINC+ca6737b41c-r0/git/lib/libutee/tee_api_arith.c:247
     ed8:	f005 faaa 	bl	6430 <mpa_cmp_short>
TEE_BigIntDiv():
/home/yocto/yocto-rfpf-new/yocto-rfpf/build/tmp/work/cortexa9hf-vfp-neon-ubinux-linux-gnueabi/optee-os/2.0.0+gitAUTOINC+ca6737b41c-r0/git/lib/libutee/tee_api_arith.c:358
     edc:	b918      	cbnz	r0, ee6 <TEE_BigIntDiv+0x2a>
/home/yocto/yocto-rfpf-new/yocto-rfpf/build/tmp/work/cortexa9hf-vfp-neon-ubinux-linux-gnueabi/optee-os/2.0.0+gitAUTOINC+ca6737b41c-r0/git/lib/libutee/tee_api_arith.c:359
     ede:	480d      	ldr	r0, [pc, #52]	; (f14 <TEE_BigIntDiv+0x58>)
     ee0:	4478      	add	r0, pc
     ee2:	f000 fa61 	bl	13a8 <TEE_BigInt_Panic>
/home/yocto/yocto-rfpf-new/yocto-rfpf/build/tmp/work/cortexa9hf-vfp-neon-ubinux-linux-gnueabi/optee-os/2.0.0+gitAUTOINC+ca6737b41c-r0/git/lib/libutee/tee_api_arith.c:361
     ee6:	4b0c      	ldr	r3, [pc, #48]	; (f18 <TEE_BigIntDiv+0x5c>)
     ee8:	4642      	mov	r2, r8
     eea:	4639      	mov	r1, r7
     eec:	4630      	mov	r0, r6
     eee:	447b      	add	r3, pc
     ef0:	9300      	str	r3, [sp, #0]
     ef2:	462b      	mov	r3, r5
     ef4:	f003 feba 	bl	4c6c <mpa_div>
/home/yocto/yocto-rfpf-new/yocto-rfpf/build/tmp/work/cortexa9hf-vfp-neon-ubinux-linux-gnueabi/optee-os/2.0.0+gitAUTOINC+ca6737b41c-r0/git/lib/libutee/tee_api_arith.c:362
     ef8:	9a03      	ldr	r2, [sp, #12]
     efa:	6823      	ldr	r3, [r4, #0]
     efc:	429a      	cmp	r2, r3
     efe:	d001      	beq.n	f04 <TEE_BigIntDiv+0x48>
     f00:	f002 f8aa 	bl	3058 <__stack_chk_fail>
     f04:	b004      	add	sp, #16
     f06:	e8bd 81f0 	ldmia.w	sp!, {r4, r5, r6, r7, r8, pc}
     f0a:	bf00      	nop
     f0c:	0000765c 	.word	0x0000765c
     f10:	0000000c 	.word	0x0000000c
     f14:	00006ece 	.word	0x00006ece
     f18:	000081ce 	.word	0x000081ce

00000f1c <TEE_BigIntMod>:
TEE_BigIntMod():
/home/yocto/yocto-rfpf-new/yocto-rfpf/build/tmp/work/cortexa9hf-vfp-neon-ubinux-linux-gnueabi/optee-os/2.0.0+gitAUTOINC+ca6737b41c-r0/git/lib/libutee/tee_api_arith.c:373
     f1c:	4b1b      	ldr	r3, [pc, #108]	; (f8c <TEE_BigIntMod+0x70>)
     f1e:	e92d 41f3 	stmdb	sp!, {r0, r1, r4, r5, r6, r7, r8, lr}
     f22:	4616      	mov	r6, r2
     f24:	4a1a      	ldr	r2, [pc, #104]	; (f90 <TEE_BigIntMod+0x74>)
     f26:	4605      	mov	r5, r0
     f28:	4688      	mov	r8, r1
TEE_BigIntCmpS32():
/home/yocto/yocto-rfpf-new/yocto-rfpf/build/tmp/work/cortexa9hf-vfp-neon-ubinux-linux-gnueabi/optee-os/2.0.0+gitAUTOINC+ca6737b41c-r0/git/lib/libutee/tee_api_arith.c:247
     f2a:	4630      	mov	r0, r6
     f2c:	2102      	movs	r1, #2
TEE_BigIntMod():
/home/yocto/yocto-rfpf-new/yocto-rfpf/build/tmp/work/cortexa9hf-vfp-neon-ubinux-linux-gnueabi/optee-os/2.0.0+gitAUTOINC+ca6737b41c-r0/git/lib/libutee/tee_api_arith.c:373
     f2e:	447b      	add	r3, pc
     f30:	589c      	ldr	r4, [r3, r2]
     f32:	6823      	ldr	r3, [r4, #0]
     f34:	9301      	str	r3, [sp, #4]
TEE_BigIntCmpS32():
/home/yocto/yocto-rfpf-new/yocto-rfpf/build/tmp/work/cortexa9hf-vfp-neon-ubinux-linux-gnueabi/optee-os/2.0.0+gitAUTOINC+ca6737b41c-r0/git/lib/libutee/tee_api_arith.c:247
     f36:	f005 fa7b 	bl	6430 <mpa_cmp_short>
TEE_BigIntMod():
/home/yocto/yocto-rfpf-new/yocto-rfpf/build/tmp/work/cortexa9hf-vfp-neon-ubinux-linux-gnueabi/optee-os/2.0.0+gitAUTOINC+ca6737b41c-r0/git/lib/libutee/tee_api_arith.c:378
     f3a:	2800      	cmp	r0, #0
     f3c:	da03      	bge.n	f46 <TEE_BigIntMod+0x2a>
/home/yocto/yocto-rfpf-new/yocto-rfpf/build/tmp/work/cortexa9hf-vfp-neon-ubinux-linux-gnueabi/optee-os/2.0.0+gitAUTOINC+ca6737b41c-r0/git/lib/libutee/tee_api_arith.c:379
     f3e:	4815      	ldr	r0, [pc, #84]	; (f94 <TEE_BigIntMod+0x78>)
     f40:	4478      	add	r0, pc
     f42:	f000 fa31 	bl	13a8 <TEE_BigInt_Panic>
/home/yocto/yocto-rfpf-new/yocto-rfpf/build/tmp/work/cortexa9hf-vfp-neon-ubinux-linux-gnueabi/optee-os/2.0.0+gitAUTOINC+ca6737b41c-r0/git/lib/libutee/tee_api_arith.c:381
     f46:	4f14      	ldr	r7, [pc, #80]	; (f98 <TEE_BigIntMod+0x7c>)
     f48:	4632      	mov	r2, r6
     f4a:	4641      	mov	r1, r8
     f4c:	4628      	mov	r0, r5
     f4e:	447f      	add	r7, pc
     f50:	463b      	mov	r3, r7
     f52:	f005 fe49 	bl	6be8 <mpa_mod>
/home/yocto/yocto-rfpf-new/yocto-rfpf/build/tmp/work/cortexa9hf-vfp-neon-ubinux-linux-gnueabi/optee-os/2.0.0+gitAUTOINC+ca6737b41c-r0/git/lib/libutee/tee_api_arith.c:383
     f56:	2100      	movs	r1, #0
     f58:	4628      	mov	r0, r5
     f5a:	f005 fa69 	bl	6430 <mpa_cmp_short>
     f5e:	2800      	cmp	r0, #0
/home/yocto/yocto-rfpf-new/yocto-rfpf/build/tmp/work/cortexa9hf-vfp-neon-ubinux-linux-gnueabi/optee-os/2.0.0+gitAUTOINC+ca6737b41c-r0/git/lib/libutee/tee_api_arith.c:384
     f60:	9a01      	ldr	r2, [sp, #4]
     f62:	6823      	ldr	r3, [r4, #0]
/home/yocto/yocto-rfpf-new/yocto-rfpf/build/tmp/work/cortexa9hf-vfp-neon-ubinux-linux-gnueabi/optee-os/2.0.0+gitAUTOINC+ca6737b41c-r0/git/lib/libutee/tee_api_arith.c:383
     f64:	da0a      	bge.n	f7c <TEE_BigIntMod+0x60>
/home/yocto/yocto-rfpf-new/yocto-rfpf/build/tmp/work/cortexa9hf-vfp-neon-ubinux-linux-gnueabi/optee-os/2.0.0+gitAUTOINC+ca6737b41c-r0/git/lib/libutee/tee_api_arith.c:384
     f66:	429a      	cmp	r2, r3
     f68:	d10a      	bne.n	f80 <TEE_BigIntMod+0x64>
     f6a:	463b      	mov	r3, r7
     f6c:	4632      	mov	r2, r6
     f6e:	4629      	mov	r1, r5
     f70:	4628      	mov	r0, r5
/home/yocto/yocto-rfpf-new/yocto-rfpf/build/tmp/work/cortexa9hf-vfp-neon-ubinux-linux-gnueabi/optee-os/2.0.0+gitAUTOINC+ca6737b41c-r0/git/lib/libutee/tee_api_arith.c:385
     f72:	b002      	add	sp, #8
     f74:	e8bd 41f0 	ldmia.w	sp!, {r4, r5, r6, r7, r8, lr}
/home/yocto/yocto-rfpf-new/yocto-rfpf/build/tmp/work/cortexa9hf-vfp-neon-ubinux-linux-gnueabi/optee-os/2.0.0+gitAUTOINC+ca6737b41c-r0/git/lib/libutee/tee_api_arith.c:384
     f78:	f004 bf98 	b.w	5eac <mpa_add>
/home/yocto/yocto-rfpf-new/yocto-rfpf/build/tmp/work/cortexa9hf-vfp-neon-ubinux-linux-gnueabi/optee-os/2.0.0+gitAUTOINC+ca6737b41c-r0/git/lib/libutee/tee_api_arith.c:385
     f7c:	429a      	cmp	r2, r3
     f7e:	d001      	beq.n	f84 <TEE_BigIntMod+0x68>
     f80:	f002 f86a 	bl	3058 <__stack_chk_fail>
     f84:	b002      	add	sp, #8
     f86:	e8bd 81f0 	ldmia.w	sp!, {r4, r5, r6, r7, r8, pc}
     f8a:	bf00      	nop
     f8c:	000075fe 	.word	0x000075fe
     f90:	0000000c 	.word	0x0000000c
     f94:	00006e7e 	.word	0x00006e7e
     f98:	0000816e 	.word	0x0000816e

00000f9c <TEE_BigIntAddMod>:
TEE_BigIntAddMod():
/home/yocto/yocto-rfpf-new/yocto-rfpf/build/tmp/work/cortexa9hf-vfp-neon-ubinux-linux-gnueabi/optee-os/2.0.0+gitAUTOINC+ca6737b41c-r0/git/lib/libutee/tee_api_arith.c:392
     f9c:	e92d 43f0 	stmdb	sp!, {r4, r5, r6, r7, r8, r9, lr}
     fa0:	461e      	mov	r6, r3
     fa2:	4b1b      	ldr	r3, [pc, #108]	; (1010 <TEE_BigIntAddMod+0x74>)
     fa4:	4691      	mov	r9, r2
     fa6:	b085      	sub	sp, #20
     fa8:	4a1a      	ldr	r2, [pc, #104]	; (1014 <TEE_BigIntAddMod+0x78>)
     faa:	4605      	mov	r5, r0
     fac:	4688      	mov	r8, r1
TEE_BigIntCmpS32():
/home/yocto/yocto-rfpf-new/yocto-rfpf/build/tmp/work/cortexa9hf-vfp-neon-ubinux-linux-gnueabi/optee-os/2.0.0+gitAUTOINC+ca6737b41c-r0/git/lib/libutee/tee_api_arith.c:247
     fae:	4630      	mov	r0, r6
     fb0:	2102      	movs	r1, #2
TEE_BigIntAddMod():
/home/yocto/yocto-rfpf-new/yocto-rfpf/build/tmp/work/cortexa9hf-vfp-neon-ubinux-linux-gnueabi/optee-os/2.0.0+gitAUTOINC+ca6737b41c-r0/git/lib/libutee/tee_api_arith.c:392
     fb2:	447b      	add	r3, pc
     fb4:	589c      	ldr	r4, [r3, r2]
     fb6:	6823      	ldr	r3, [r4, #0]
     fb8:	9303      	str	r3, [sp, #12]
TEE_BigIntCmpS32():
/home/yocto/yocto-rfpf-new/yocto-rfpf/build/tmp/work/cortexa9hf-vfp-neon-ubinux-linux-gnueabi/optee-os/2.0.0+gitAUTOINC+ca6737b41c-r0/git/lib/libutee/tee_api_arith.c:247
     fba:	f005 fa39 	bl	6430 <mpa_cmp_short>
TEE_BigIntAddMod():
/home/yocto/yocto-rfpf-new/yocto-rfpf/build/tmp/work/cortexa9hf-vfp-neon-ubinux-linux-gnueabi/optee-os/2.0.0+gitAUTOINC+ca6737b41c-r0/git/lib/libutee/tee_api_arith.c:398
     fbe:	2800      	cmp	r0, #0
     fc0:	da03      	bge.n	fca <TEE_BigIntAddMod+0x2e>
/home/yocto/yocto-rfpf-new/yocto-rfpf/build/tmp/work/cortexa9hf-vfp-neon-ubinux-linux-gnueabi/optee-os/2.0.0+gitAUTOINC+ca6737b41c-r0/git/lib/libutee/tee_api_arith.c:399
     fc2:	4815      	ldr	r0, [pc, #84]	; (1018 <TEE_BigIntAddMod+0x7c>)
     fc4:	4478      	add	r0, pc
     fc6:	f000 f9ef 	bl	13a8 <TEE_BigInt_Panic>
/home/yocto/yocto-rfpf-new/yocto-rfpf/build/tmp/work/cortexa9hf-vfp-neon-ubinux-linux-gnueabi/optee-os/2.0.0+gitAUTOINC+ca6737b41c-r0/git/lib/libutee/tee_api_arith.c:401
     fca:	4f14      	ldr	r7, [pc, #80]	; (101c <TEE_BigIntAddMod+0x80>)
     fcc:	4633      	mov	r3, r6
     fce:	464a      	mov	r2, r9
     fd0:	4641      	mov	r1, r8
     fd2:	4628      	mov	r0, r5
     fd4:	447f      	add	r7, pc
     fd6:	9700      	str	r7, [sp, #0]
     fd8:	f005 fe22 	bl	6c20 <mpa_add_mod>
/home/yocto/yocto-rfpf-new/yocto-rfpf/build/tmp/work/cortexa9hf-vfp-neon-ubinux-linux-gnueabi/optee-os/2.0.0+gitAUTOINC+ca6737b41c-r0/git/lib/libutee/tee_api_arith.c:402
     fdc:	2100      	movs	r1, #0
     fde:	4628      	mov	r0, r5
     fe0:	f005 fa26 	bl	6430 <mpa_cmp_short>
     fe4:	2800      	cmp	r0, #0
/home/yocto/yocto-rfpf-new/yocto-rfpf/build/tmp/work/cortexa9hf-vfp-neon-ubinux-linux-gnueabi/optee-os/2.0.0+gitAUTOINC+ca6737b41c-r0/git/lib/libutee/tee_api_arith.c:403
     fe6:	9a03      	ldr	r2, [sp, #12]
     fe8:	6823      	ldr	r3, [r4, #0]
/home/yocto/yocto-rfpf-new/yocto-rfpf/build/tmp/work/cortexa9hf-vfp-neon-ubinux-linux-gnueabi/optee-os/2.0.0+gitAUTOINC+ca6737b41c-r0/git/lib/libutee/tee_api_arith.c:402
     fea:	da0a      	bge.n	1002 <TEE_BigIntAddMod+0x66>
/home/yocto/yocto-rfpf-new/yocto-rfpf/build/tmp/work/cortexa9hf-vfp-neon-ubinux-linux-gnueabi/optee-os/2.0.0+gitAUTOINC+ca6737b41c-r0/git/lib/libutee/tee_api_arith.c:403
     fec:	429a      	cmp	r2, r3
     fee:	d10a      	bne.n	1006 <TEE_BigIntAddMod+0x6a>
     ff0:	463b      	mov	r3, r7
     ff2:	4632      	mov	r2, r6
     ff4:	4629      	mov	r1, r5
     ff6:	4628      	mov	r0, r5
/home/yocto/yocto-rfpf-new/yocto-rfpf/build/tmp/work/cortexa9hf-vfp-neon-ubinux-linux-gnueabi/optee-os/2.0.0+gitAUTOINC+ca6737b41c-r0/git/lib/libutee/tee_api_arith.c:404
     ff8:	b005      	add	sp, #20
     ffa:	e8bd 43f0 	ldmia.w	sp!, {r4, r5, r6, r7, r8, r9, lr}
/home/yocto/yocto-rfpf-new/yocto-rfpf/build/tmp/work/cortexa9hf-vfp-neon-ubinux-linux-gnueabi/optee-os/2.0.0+gitAUTOINC+ca6737b41c-r0/git/lib/libutee/tee_api_arith.c:403
     ffe:	f004 bf55 	b.w	5eac <mpa_add>
/home/yocto/yocto-rfpf-new/yocto-rfpf/build/tmp/work/cortexa9hf-vfp-neon-ubinux-linux-gnueabi/optee-os/2.0.0+gitAUTOINC+ca6737b41c-r0/git/lib/libutee/tee_api_arith.c:404
    1002:	429a      	cmp	r2, r3
    1004:	d001      	beq.n	100a <TEE_BigIntAddMod+0x6e>
    1006:	f002 f827 	bl	3058 <__stack_chk_fail>
    100a:	b005      	add	sp, #20
    100c:	e8bd 83f0 	ldmia.w	sp!, {r4, r5, r6, r7, r8, r9, pc}
    1010:	0000757a 	.word	0x0000757a
    1014:	0000000c 	.word	0x0000000c
    1018:	00006dfa 	.word	0x00006dfa
    101c:	000080e8 	.word	0x000080e8

00001020 <TEE_BigIntSubMod>:
TEE_BigIntSubMod():
/home/yocto/yocto-rfpf-new/yocto-rfpf/build/tmp/work/cortexa9hf-vfp-neon-ubinux-linux-gnueabi/optee-os/2.0.0+gitAUTOINC+ca6737b41c-r0/git/lib/libutee/tee_api_arith.c:411
    1020:	e92d 43f0 	stmdb	sp!, {r4, r5, r6, r7, r8, r9, lr}
    1024:	461e      	mov	r6, r3
    1026:	4b1b      	ldr	r3, [pc, #108]	; (1094 <TEE_BigIntSubMod+0x74>)
    1028:	4691      	mov	r9, r2
    102a:	b085      	sub	sp, #20
    102c:	4a1a      	ldr	r2, [pc, #104]	; (1098 <TEE_BigIntSubMod+0x78>)
    102e:	4605      	mov	r5, r0
    1030:	4688      	mov	r8, r1
TEE_BigIntCmpS32():
/home/yocto/yocto-rfpf-new/yocto-rfpf/build/tmp/work/cortexa9hf-vfp-neon-ubinux-linux-gnueabi/optee-os/2.0.0+gitAUTOINC+ca6737b41c-r0/git/lib/libutee/tee_api_arith.c:247
    1032:	4630      	mov	r0, r6
    1034:	2102      	movs	r1, #2
TEE_BigIntSubMod():
/home/yocto/yocto-rfpf-new/yocto-rfpf/build/tmp/work/cortexa9hf-vfp-neon-ubinux-linux-gnueabi/optee-os/2.0.0+gitAUTOINC+ca6737b41c-r0/git/lib/libutee/tee_api_arith.c:411
    1036:	447b      	add	r3, pc
    1038:	589c      	ldr	r4, [r3, r2]
    103a:	6823      	ldr	r3, [r4, #0]
    103c:	9303      	str	r3, [sp, #12]
TEE_BigIntCmpS32():
/home/yocto/yocto-rfpf-new/yocto-rfpf/build/tmp/work/cortexa9hf-vfp-neon-ubinux-linux-gnueabi/optee-os/2.0.0+gitAUTOINC+ca6737b41c-r0/git/lib/libutee/tee_api_arith.c:247
    103e:	f005 f9f7 	bl	6430 <mpa_cmp_short>
TEE_BigIntSubMod():
/home/yocto/yocto-rfpf-new/yocto-rfpf/build/tmp/work/cortexa9hf-vfp-neon-ubinux-linux-gnueabi/optee-os/2.0.0+gitAUTOINC+ca6737b41c-r0/git/lib/libutee/tee_api_arith.c:417
    1042:	2800      	cmp	r0, #0
    1044:	da03      	bge.n	104e <TEE_BigIntSubMod+0x2e>
/home/yocto/yocto-rfpf-new/yocto-rfpf/build/tmp/work/cortexa9hf-vfp-neon-ubinux-linux-gnueabi/optee-os/2.0.0+gitAUTOINC+ca6737b41c-r0/git/lib/libutee/tee_api_arith.c:418
    1046:	4815      	ldr	r0, [pc, #84]	; (109c <TEE_BigIntSubMod+0x7c>)
    1048:	4478      	add	r0, pc
    104a:	f000 f9ad 	bl	13a8 <TEE_BigInt_Panic>
/home/yocto/yocto-rfpf-new/yocto-rfpf/build/tmp/work/cortexa9hf-vfp-neon-ubinux-linux-gnueabi/optee-os/2.0.0+gitAUTOINC+ca6737b41c-r0/git/lib/libutee/tee_api_arith.c:420
    104e:	4f14      	ldr	r7, [pc, #80]	; (10a0 <TEE_BigIntSubMod+0x80>)
    1050:	4633      	mov	r3, r6
    1052:	464a      	mov	r2, r9
    1054:	4641      	mov	r1, r8
    1056:	4628      	mov	r0, r5
    1058:	447f      	add	r7, pc
    105a:	9700      	str	r7, [sp, #0]
    105c:	f005 fe10 	bl	6c80 <mpa_sub_mod>
/home/yocto/yocto-rfpf-new/yocto-rfpf/build/tmp/work/cortexa9hf-vfp-neon-ubinux-linux-gnueabi/optee-os/2.0.0+gitAUTOINC+ca6737b41c-r0/git/lib/libutee/tee_api_arith.c:421
    1060:	2100      	movs	r1, #0
    1062:	4628      	mov	r0, r5
    1064:	f005 f9e4 	bl	6430 <mpa_cmp_short>
    1068:	2800      	cmp	r0, #0
/home/yocto/yocto-rfpf-new/yocto-rfpf/build/tmp/work/cortexa9hf-vfp-neon-ubinux-linux-gnueabi/optee-os/2.0.0+gitAUTOINC+ca6737b41c-r0/git/lib/libutee/tee_api_arith.c:422
    106a:	9a03      	ldr	r2, [sp, #12]
    106c:	6823      	ldr	r3, [r4, #0]
/home/yocto/yocto-rfpf-new/yocto-rfpf/build/tmp/work/cortexa9hf-vfp-neon-ubinux-linux-gnueabi/optee-os/2.0.0+gitAUTOINC+ca6737b41c-r0/git/lib/libutee/tee_api_arith.c:421
    106e:	da0a      	bge.n	1086 <TEE_BigIntSubMod+0x66>
/home/yocto/yocto-rfpf-new/yocto-rfpf/build/tmp/work/cortexa9hf-vfp-neon-ubinux-linux-gnueabi/optee-os/2.0.0+gitAUTOINC+ca6737b41c-r0/git/lib/libutee/tee_api_arith.c:422
    1070:	429a      	cmp	r2, r3
    1072:	d10a      	bne.n	108a <TEE_BigIntSubMod+0x6a>
    1074:	463b      	mov	r3, r7
    1076:	4632      	mov	r2, r6
    1078:	4629      	mov	r1, r5
    107a:	4628      	mov	r0, r5
/home/yocto/yocto-rfpf-new/yocto-rfpf/build/tmp/work/cortexa9hf-vfp-neon-ubinux-linux-gnueabi/optee-os/2.0.0+gitAUTOINC+ca6737b41c-r0/git/lib/libutee/tee_api_arith.c:423
    107c:	b005      	add	sp, #20
    107e:	e8bd 43f0 	ldmia.w	sp!, {r4, r5, r6, r7, r8, r9, lr}
/home/yocto/yocto-rfpf-new/yocto-rfpf/build/tmp/work/cortexa9hf-vfp-neon-ubinux-linux-gnueabi/optee-os/2.0.0+gitAUTOINC+ca6737b41c-r0/git/lib/libutee/tee_api_arith.c:422
    1082:	f004 bf13 	b.w	5eac <mpa_add>
/home/yocto/yocto-rfpf-new/yocto-rfpf/build/tmp/work/cortexa9hf-vfp-neon-ubinux-linux-gnueabi/optee-os/2.0.0+gitAUTOINC+ca6737b41c-r0/git/lib/libutee/tee_api_arith.c:423
    1086:	429a      	cmp	r2, r3
    1088:	d001      	beq.n	108e <TEE_BigIntSubMod+0x6e>
    108a:	f001 ffe5 	bl	3058 <__stack_chk_fail>
    108e:	b005      	add	sp, #20
    1090:	e8bd 83f0 	ldmia.w	sp!, {r4, r5, r6, r7, r8, r9, pc}
    1094:	000074f6 	.word	0x000074f6
    1098:	0000000c 	.word	0x0000000c
    109c:	00006d76 	.word	0x00006d76
    10a0:	00008064 	.word	0x00008064

000010a4 <TEE_BigIntMulMod>:
TEE_BigIntMulMod():
/home/yocto/yocto-rfpf-new/yocto-rfpf/build/tmp/work/cortexa9hf-vfp-neon-ubinux-linux-gnueabi/optee-os/2.0.0+gitAUTOINC+ca6737b41c-r0/git/lib/libutee/tee_api_arith.c:430
    10a4:	e92d 47ff 	stmdb	sp!, {r0, r1, r2, r3, r4, r5, r6, r7, r8, r9, sl, lr}
    10a8:	461d      	mov	r5, r3
    10aa:	4b1f      	ldr	r3, [pc, #124]	; (1128 <TEE_BigIntMulMod+0x84>)
    10ac:	4692      	mov	sl, r2
    10ae:	4680      	mov	r8, r0
    10b0:	4a1e      	ldr	r2, [pc, #120]	; (112c <TEE_BigIntMulMod+0x88>)
    10b2:	4689      	mov	r9, r1
TEE_BigIntCmpS32():
/home/yocto/yocto-rfpf-new/yocto-rfpf/build/tmp/work/cortexa9hf-vfp-neon-ubinux-linux-gnueabi/optee-os/2.0.0+gitAUTOINC+ca6737b41c-r0/git/lib/libutee/tee_api_arith.c:247
    10b4:	4628      	mov	r0, r5
    10b6:	2102      	movs	r1, #2
TEE_BigIntMulMod():
/home/yocto/yocto-rfpf-new/yocto-rfpf/build/tmp/work/cortexa9hf-vfp-neon-ubinux-linux-gnueabi/optee-os/2.0.0+gitAUTOINC+ca6737b41c-r0/git/lib/libutee/tee_api_arith.c:430
    10b8:	447b      	add	r3, pc
    10ba:	589c      	ldr	r4, [r3, r2]
    10bc:	6823      	ldr	r3, [r4, #0]
    10be:	9303      	str	r3, [sp, #12]
TEE_BigIntCmpS32():
/home/yocto/yocto-rfpf-new/yocto-rfpf/build/tmp/work/cortexa9hf-vfp-neon-ubinux-linux-gnueabi/optee-os/2.0.0+gitAUTOINC+ca6737b41c-r0/git/lib/libutee/tee_api_arith.c:247
    10c0:	f005 f9b6 	bl	6430 <mpa_cmp_short>
TEE_BigIntMulMod():
/home/yocto/yocto-rfpf-new/yocto-rfpf/build/tmp/work/cortexa9hf-vfp-neon-ubinux-linux-gnueabi/optee-os/2.0.0+gitAUTOINC+ca6737b41c-r0/git/lib/libutee/tee_api_arith.c:437
    10c4:	2800      	cmp	r0, #0
    10c6:	da03      	bge.n	10d0 <TEE_BigIntMulMod+0x2c>
/home/yocto/yocto-rfpf-new/yocto-rfpf/build/tmp/work/cortexa9hf-vfp-neon-ubinux-linux-gnueabi/optee-os/2.0.0+gitAUTOINC+ca6737b41c-r0/git/lib/libutee/tee_api_arith.c:438
    10c8:	4819      	ldr	r0, [pc, #100]	; (1130 <TEE_BigIntMulMod+0x8c>)
    10ca:	4478      	add	r0, pc
    10cc:	f000 f96c 	bl	13a8 <TEE_BigInt_Panic>
/home/yocto/yocto-rfpf-new/yocto-rfpf/build/tmp/work/cortexa9hf-vfp-neon-ubinux-linux-gnueabi/optee-os/2.0.0+gitAUTOINC+ca6737b41c-r0/git/lib/libutee/tee_api_arith.c:448
    10d0:	4e18      	ldr	r6, [pc, #96]	; (1134 <TEE_BigIntMulMod+0x90>)
    10d2:	af02      	add	r7, sp, #8
    10d4:	4638      	mov	r0, r7
    10d6:	447e      	add	r6, pc
    10d8:	4631      	mov	r1, r6
    10da:	f004 f9ab 	bl	5434 <mpa_alloc_static_temp_var>
/home/yocto/yocto-rfpf-new/yocto-rfpf/build/tmp/work/cortexa9hf-vfp-neon-ubinux-linux-gnueabi/optee-os/2.0.0+gitAUTOINC+ca6737b41c-r0/git/lib/libutee/tee_api_arith.c:449
    10de:	462b      	mov	r3, r5
    10e0:	4652      	mov	r2, sl
    10e2:	9802      	ldr	r0, [sp, #8]
    10e4:	4649      	mov	r1, r9
    10e6:	9600      	str	r6, [sp, #0]
    10e8:	f005 fdfa 	bl	6ce0 <mpa_mul_mod>
/home/yocto/yocto-rfpf-new/yocto-rfpf/build/tmp/work/cortexa9hf-vfp-neon-ubinux-linux-gnueabi/optee-os/2.0.0+gitAUTOINC+ca6737b41c-r0/git/lib/libutee/tee_api_arith.c:450
    10ec:	2100      	movs	r1, #0
    10ee:	9802      	ldr	r0, [sp, #8]
    10f0:	f005 f99e 	bl	6430 <mpa_cmp_short>
    10f4:	2800      	cmp	r0, #0
    10f6:	da05      	bge.n	1104 <TEE_BigIntMulMod+0x60>
/home/yocto/yocto-rfpf-new/yocto-rfpf/build/tmp/work/cortexa9hf-vfp-neon-ubinux-linux-gnueabi/optee-os/2.0.0+gitAUTOINC+ca6737b41c-r0/git/lib/libutee/tee_api_arith.c:451
    10f8:	9902      	ldr	r1, [sp, #8]
    10fa:	4633      	mov	r3, r6
    10fc:	462a      	mov	r2, r5
    10fe:	4608      	mov	r0, r1
    1100:	f004 fed4 	bl	5eac <mpa_add>
/home/yocto/yocto-rfpf-new/yocto-rfpf/build/tmp/work/cortexa9hf-vfp-neon-ubinux-linux-gnueabi/optee-os/2.0.0+gitAUTOINC+ca6737b41c-r0/git/lib/libutee/tee_api_arith.c:452
    1104:	4640      	mov	r0, r8
    1106:	9902      	ldr	r1, [sp, #8]
    1108:	f002 fe86 	bl	3e18 <mpa_copy>
/home/yocto/yocto-rfpf-new/yocto-rfpf/build/tmp/work/cortexa9hf-vfp-neon-ubinux-linux-gnueabi/optee-os/2.0.0+gitAUTOINC+ca6737b41c-r0/git/lib/libutee/tee_api_arith.c:453
    110c:	490a      	ldr	r1, [pc, #40]	; (1138 <TEE_BigIntMulMod+0x94>)
    110e:	4638      	mov	r0, r7
    1110:	4479      	add	r1, pc
    1112:	f004 f9a9 	bl	5468 <mpa_free_static_temp_var>
/home/yocto/yocto-rfpf-new/yocto-rfpf/build/tmp/work/cortexa9hf-vfp-neon-ubinux-linux-gnueabi/optee-os/2.0.0+gitAUTOINC+ca6737b41c-r0/git/lib/libutee/tee_api_arith.c:454
    1116:	9a03      	ldr	r2, [sp, #12]
    1118:	6823      	ldr	r3, [r4, #0]
    111a:	429a      	cmp	r2, r3
    111c:	d001      	beq.n	1122 <TEE_BigIntMulMod+0x7e>
    111e:	f001 ff9b 	bl	3058 <__stack_chk_fail>
    1122:	b004      	add	sp, #16
    1124:	e8bd 87f0 	ldmia.w	sp!, {r4, r5, r6, r7, r8, r9, sl, pc}
    1128:	00007474 	.word	0x00007474
    112c:	0000000c 	.word	0x0000000c
    1130:	00006cf4 	.word	0x00006cf4
    1134:	00007fe6 	.word	0x00007fe6
    1138:	00007fac 	.word	0x00007fac

0000113c <TEE_BigIntSquareMod>:
TEE_BigIntSquareMod():
/home/yocto/yocto-rfpf-new/yocto-rfpf/build/tmp/work/cortexa9hf-vfp-neon-ubinux-linux-gnueabi/optee-os/2.0.0+gitAUTOINC+ca6737b41c-r0/git/lib/libutee/tee_api_arith.c:461
    113c:	b573      	push	{r0, r1, r4, r5, r6, lr}
    113e:	4613      	mov	r3, r2
    1140:	4c08      	ldr	r4, [pc, #32]	; (1164 <TEE_BigIntSquareMod+0x28>)
    1142:	4a09      	ldr	r2, [pc, #36]	; (1168 <TEE_BigIntSquareMod+0x2c>)
    1144:	447c      	add	r4, pc
    1146:	58a4      	ldr	r4, [r4, r2]
    1148:	6822      	ldr	r2, [r4, #0]
    114a:	9201      	str	r2, [sp, #4]
/home/yocto/yocto-rfpf-new/yocto-rfpf/build/tmp/work/cortexa9hf-vfp-neon-ubinux-linux-gnueabi/optee-os/2.0.0+gitAUTOINC+ca6737b41c-r0/git/lib/libutee/tee_api_arith.c:462
    114c:	9e01      	ldr	r6, [sp, #4]
    114e:	6822      	ldr	r2, [r4, #0]
    1150:	4296      	cmp	r6, r2
    1152:	d001      	beq.n	1158 <TEE_BigIntSquareMod+0x1c>
    1154:	f001 ff80 	bl	3058 <__stack_chk_fail>
    1158:	460a      	mov	r2, r1
/home/yocto/yocto-rfpf-new/yocto-rfpf/build/tmp/work/cortexa9hf-vfp-neon-ubinux-linux-gnueabi/optee-os/2.0.0+gitAUTOINC+ca6737b41c-r0/git/lib/libutee/tee_api_arith.c:463
    115a:	b002      	add	sp, #8
    115c:	e8bd 4070 	ldmia.w	sp!, {r4, r5, r6, lr}
/home/yocto/yocto-rfpf-new/yocto-rfpf/build/tmp/work/cortexa9hf-vfp-neon-ubinux-linux-gnueabi/optee-os/2.0.0+gitAUTOINC+ca6737b41c-r0/git/lib/libutee/tee_api_arith.c:462
    1160:	f7ff bfa0 	b.w	10a4 <TEE_BigIntMulMod>
    1164:	000073e8 	.word	0x000073e8
    1168:	0000000c 	.word	0x0000000c

0000116c <TEE_BigIntInvMod>:
TEE_BigIntInvMod():
/home/yocto/yocto-rfpf-new/yocto-rfpf/build/tmp/work/cortexa9hf-vfp-neon-ubinux-linux-gnueabi/optee-os/2.0.0+gitAUTOINC+ca6737b41c-r0/git/lib/libutee/tee_api_arith.c:470
    116c:	4b14      	ldr	r3, [pc, #80]	; (11c0 <TEE_BigIntInvMod+0x54>)
    116e:	b5f7      	push	{r0, r1, r2, r4, r5, r6, r7, lr}
    1170:	4615      	mov	r5, r2
    1172:	4a14      	ldr	r2, [pc, #80]	; (11c4 <TEE_BigIntInvMod+0x58>)
    1174:	4607      	mov	r7, r0
    1176:	460c      	mov	r4, r1
TEE_BigIntCmpS32():
/home/yocto/yocto-rfpf-new/yocto-rfpf/build/tmp/work/cortexa9hf-vfp-neon-ubinux-linux-gnueabi/optee-os/2.0.0+gitAUTOINC+ca6737b41c-r0/git/lib/libutee/tee_api_arith.c:247
    1178:	4628      	mov	r0, r5
    117a:	2102      	movs	r1, #2
TEE_BigIntInvMod():
/home/yocto/yocto-rfpf-new/yocto-rfpf/build/tmp/work/cortexa9hf-vfp-neon-ubinux-linux-gnueabi/optee-os/2.0.0+gitAUTOINC+ca6737b41c-r0/git/lib/libutee/tee_api_arith.c:470
    117c:	447b      	add	r3, pc
    117e:	589e      	ldr	r6, [r3, r2]
    1180:	6833      	ldr	r3, [r6, #0]
    1182:	9301      	str	r3, [sp, #4]
TEE_BigIntCmpS32():
/home/yocto/yocto-rfpf-new/yocto-rfpf/build/tmp/work/cortexa9hf-vfp-neon-ubinux-linux-gnueabi/optee-os/2.0.0+gitAUTOINC+ca6737b41c-r0/git/lib/libutee/tee_api_arith.c:247
    1184:	f005 f954 	bl	6430 <mpa_cmp_short>
TEE_BigIntInvMod():
/home/yocto/yocto-rfpf-new/yocto-rfpf/build/tmp/work/cortexa9hf-vfp-neon-ubinux-linux-gnueabi/optee-os/2.0.0+gitAUTOINC+ca6737b41c-r0/git/lib/libutee/tee_api_arith.c:475
    1188:	2800      	cmp	r0, #0
    118a:	da03      	bge.n	1194 <TEE_BigIntInvMod+0x28>
/home/yocto/yocto-rfpf-new/yocto-rfpf/build/tmp/work/cortexa9hf-vfp-neon-ubinux-linux-gnueabi/optee-os/2.0.0+gitAUTOINC+ca6737b41c-r0/git/lib/libutee/tee_api_arith.c:476
    118c:	480e      	ldr	r0, [pc, #56]	; (11c8 <TEE_BigIntInvMod+0x5c>)
    118e:	4478      	add	r0, pc
    1190:	f000 f90a 	bl	13a8 <TEE_BigInt_Panic>
TEE_BigIntCmpS32():
/home/yocto/yocto-rfpf-new/yocto-rfpf/build/tmp/work/cortexa9hf-vfp-neon-ubinux-linux-gnueabi/optee-os/2.0.0+gitAUTOINC+ca6737b41c-r0/git/lib/libutee/tee_api_arith.c:247
    1194:	2100      	movs	r1, #0
    1196:	4620      	mov	r0, r4
    1198:	f005 f94a 	bl	6430 <mpa_cmp_short>
TEE_BigIntInvMod():
/home/yocto/yocto-rfpf-new/yocto-rfpf/build/tmp/work/cortexa9hf-vfp-neon-ubinux-linux-gnueabi/optee-os/2.0.0+gitAUTOINC+ca6737b41c-r0/git/lib/libutee/tee_api_arith.c:475
    119c:	2800      	cmp	r0, #0
    119e:	d0f5      	beq.n	118c <TEE_BigIntInvMod+0x20>
/home/yocto/yocto-rfpf-new/yocto-rfpf/build/tmp/work/cortexa9hf-vfp-neon-ubinux-linux-gnueabi/optee-os/2.0.0+gitAUTOINC+ca6737b41c-r0/git/lib/libutee/tee_api_arith.c:478
    11a0:	9a01      	ldr	r2, [sp, #4]
    11a2:	6833      	ldr	r3, [r6, #0]
    11a4:	429a      	cmp	r2, r3
    11a6:	d001      	beq.n	11ac <TEE_BigIntInvMod+0x40>
    11a8:	f001 ff56 	bl	3058 <__stack_chk_fail>
    11ac:	4b07      	ldr	r3, [pc, #28]	; (11cc <TEE_BigIntInvMod+0x60>)
    11ae:	462a      	mov	r2, r5
    11b0:	4621      	mov	r1, r4
    11b2:	4638      	mov	r0, r7
    11b4:	447b      	add	r3, pc
/home/yocto/yocto-rfpf-new/yocto-rfpf/build/tmp/work/cortexa9hf-vfp-neon-ubinux-linux-gnueabi/optee-os/2.0.0+gitAUTOINC+ca6737b41c-r0/git/lib/libutee/tee_api_arith.c:479
    11b6:	b003      	add	sp, #12
    11b8:	e8bd 40f0 	ldmia.w	sp!, {r4, r5, r6, r7, lr}
/home/yocto/yocto-rfpf-new/yocto-rfpf/build/tmp/work/cortexa9hf-vfp-neon-ubinux-linux-gnueabi/optee-os/2.0.0+gitAUTOINC+ca6737b41c-r0/git/lib/libutee/tee_api_arith.c:478
    11bc:	f005 bdc0 	b.w	6d40 <mpa_inv_mod>
    11c0:	000073b0 	.word	0x000073b0
    11c4:	0000000c 	.word	0x0000000c
    11c8:	00006c45 	.word	0x00006c45
    11cc:	00007f08 	.word	0x00007f08

000011d0 <TEE_BigIntRelativePrime>:
TEE_BigIntRelativePrime():
/home/yocto/yocto-rfpf-new/yocto-rfpf/build/tmp/work/cortexa9hf-vfp-neon-ubinux-linux-gnueabi/optee-os/2.0.0+gitAUTOINC+ca6737b41c-r0/git/lib/libutee/tee_api_arith.c:489
    11d0:	4b15      	ldr	r3, [pc, #84]	; (1228 <TEE_BigIntRelativePrime+0x58>)
    11d2:	4a16      	ldr	r2, [pc, #88]	; (122c <TEE_BigIntRelativePrime+0x5c>)
    11d4:	e92d 41f3 	stmdb	sp!, {r0, r1, r4, r5, r6, r7, r8, lr}
    11d8:	4607      	mov	r7, r0
/home/yocto/yocto-rfpf-new/yocto-rfpf/build/tmp/work/cortexa9hf-vfp-neon-ubinux-linux-gnueabi/optee-os/2.0.0+gitAUTOINC+ca6737b41c-r0/git/lib/libutee/tee_api_arith.c:495
    11da:	4c15      	ldr	r4, [pc, #84]	; (1230 <TEE_BigIntRelativePrime+0x60>)
/home/yocto/yocto-rfpf-new/yocto-rfpf/build/tmp/work/cortexa9hf-vfp-neon-ubinux-linux-gnueabi/optee-os/2.0.0+gitAUTOINC+ca6737b41c-r0/git/lib/libutee/tee_api_arith.c:489
    11dc:	4688      	mov	r8, r1
/home/yocto/yocto-rfpf-new/yocto-rfpf/build/tmp/work/cortexa9hf-vfp-neon-ubinux-linux-gnueabi/optee-os/2.0.0+gitAUTOINC+ca6737b41c-r0/git/lib/libutee/tee_api_arith.c:495
    11de:	4668      	mov	r0, sp
/home/yocto/yocto-rfpf-new/yocto-rfpf/build/tmp/work/cortexa9hf-vfp-neon-ubinux-linux-gnueabi/optee-os/2.0.0+gitAUTOINC+ca6737b41c-r0/git/lib/libutee/tee_api_arith.c:489
    11e0:	447b      	add	r3, pc
    11e2:	589e      	ldr	r6, [r3, r2]
/home/yocto/yocto-rfpf-new/yocto-rfpf/build/tmp/work/cortexa9hf-vfp-neon-ubinux-linux-gnueabi/optee-os/2.0.0+gitAUTOINC+ca6737b41c-r0/git/lib/libutee/tee_api_arith.c:495
    11e4:	447c      	add	r4, pc
    11e6:	4621      	mov	r1, r4
/home/yocto/yocto-rfpf-new/yocto-rfpf/build/tmp/work/cortexa9hf-vfp-neon-ubinux-linux-gnueabi/optee-os/2.0.0+gitAUTOINC+ca6737b41c-r0/git/lib/libutee/tee_api_arith.c:489
    11e8:	6833      	ldr	r3, [r6, #0]
    11ea:	9301      	str	r3, [sp, #4]
/home/yocto/yocto-rfpf-new/yocto-rfpf/build/tmp/work/cortexa9hf-vfp-neon-ubinux-linux-gnueabi/optee-os/2.0.0+gitAUTOINC+ca6737b41c-r0/git/lib/libutee/tee_api_arith.c:495
    11ec:	f004 f922 	bl	5434 <mpa_alloc_static_temp_var>
/home/yocto/yocto-rfpf-new/yocto-rfpf/build/tmp/work/cortexa9hf-vfp-neon-ubinux-linux-gnueabi/optee-os/2.0.0+gitAUTOINC+ca6737b41c-r0/git/lib/libutee/tee_api_arith.c:497
    11f0:	4623      	mov	r3, r4
    11f2:	4642      	mov	r2, r8
    11f4:	9800      	ldr	r0, [sp, #0]
    11f6:	4639      	mov	r1, r7
    11f8:	f003 ff7a 	bl	50f0 <mpa_gcd>
/home/yocto/yocto-rfpf-new/yocto-rfpf/build/tmp/work/cortexa9hf-vfp-neon-ubinux-linux-gnueabi/optee-os/2.0.0+gitAUTOINC+ca6737b41c-r0/git/lib/libutee/tee_api_arith.c:498
    11fc:	2101      	movs	r1, #1
    11fe:	9800      	ldr	r0, [sp, #0]
    1200:	f005 f916 	bl	6430 <mpa_cmp_short>
    1204:	4607      	mov	r7, r0
/home/yocto/yocto-rfpf-new/yocto-rfpf/build/tmp/work/cortexa9hf-vfp-neon-ubinux-linux-gnueabi/optee-os/2.0.0+gitAUTOINC+ca6737b41c-r0/git/lib/libutee/tee_api_arith.c:500
    1206:	4621      	mov	r1, r4
    1208:	4668      	mov	r0, sp
    120a:	f004 f92d 	bl	5468 <mpa_free_static_temp_var>
/home/yocto/yocto-rfpf-new/yocto-rfpf/build/tmp/work/cortexa9hf-vfp-neon-ubinux-linux-gnueabi/optee-os/2.0.0+gitAUTOINC+ca6737b41c-r0/git/lib/libutee/tee_api_arith.c:503
    120e:	9a01      	ldr	r2, [sp, #4]
    1210:	fab7 f087 	clz	r0, r7
    1214:	6833      	ldr	r3, [r6, #0]
    1216:	0940      	lsrs	r0, r0, #5
    1218:	429a      	cmp	r2, r3
    121a:	d001      	beq.n	1220 <TEE_BigIntRelativePrime+0x50>
    121c:	f001 ff1c 	bl	3058 <__stack_chk_fail>
    1220:	b002      	add	sp, #8
    1222:	e8bd 81f0 	ldmia.w	sp!, {r4, r5, r6, r7, r8, pc}
    1226:	bf00      	nop
    1228:	0000734c 	.word	0x0000734c
    122c:	0000000c 	.word	0x0000000c
    1230:	00007ed8 	.word	0x00007ed8

00001234 <TEE_BigIntComputeExtendedGcd>:
TEE_BigIntComputeExtendedGcd():
/home/yocto/yocto-rfpf-new/yocto-rfpf/build/tmp/work/cortexa9hf-vfp-neon-ubinux-linux-gnueabi/optee-os/2.0.0+gitAUTOINC+ca6737b41c-r0/git/lib/libutee/tee_api_arith.c:511
    1234:	b530      	push	{r4, r5, lr}
    1236:	b085      	sub	sp, #20
    1238:	4c0a      	ldr	r4, [pc, #40]	; (1264 <TEE_BigIntComputeExtendedGcd+0x30>)
    123a:	4d0b      	ldr	r5, [pc, #44]	; (1268 <TEE_BigIntComputeExtendedGcd+0x34>)
    123c:	447c      	add	r4, pc
    123e:	5964      	ldr	r4, [r4, r5]
    1240:	6825      	ldr	r5, [r4, #0]
    1242:	9503      	str	r5, [sp, #12]
/home/yocto/yocto-rfpf-new/yocto-rfpf/build/tmp/work/cortexa9hf-vfp-neon-ubinux-linux-gnueabi/optee-os/2.0.0+gitAUTOINC+ca6737b41c-r0/git/lib/libutee/tee_api_arith.c:518
    1244:	4d09      	ldr	r5, [pc, #36]	; (126c <TEE_BigIntComputeExtendedGcd+0x38>)
    1246:	447d      	add	r5, pc
    1248:	9501      	str	r5, [sp, #4]
    124a:	9d08      	ldr	r5, [sp, #32]
    124c:	9500      	str	r5, [sp, #0]
    124e:	f003 ffb5 	bl	51bc <mpa_extended_gcd>
/home/yocto/yocto-rfpf-new/yocto-rfpf/build/tmp/work/cortexa9hf-vfp-neon-ubinux-linux-gnueabi/optee-os/2.0.0+gitAUTOINC+ca6737b41c-r0/git/lib/libutee/tee_api_arith.c:519
    1252:	9a03      	ldr	r2, [sp, #12]
    1254:	6823      	ldr	r3, [r4, #0]
    1256:	429a      	cmp	r2, r3
    1258:	d001      	beq.n	125e <TEE_BigIntComputeExtendedGcd+0x2a>
    125a:	f001 fefd 	bl	3058 <__stack_chk_fail>
    125e:	b005      	add	sp, #20
    1260:	bd30      	pop	{r4, r5, pc}
    1262:	bf00      	nop
    1264:	000072f0 	.word	0x000072f0
    1268:	0000000c 	.word	0x0000000c
    126c:	00007e76 	.word	0x00007e76

00001270 <TEE_BigIntIsProbablePrime>:
TEE_BigIntIsProbablePrime():
/home/yocto/yocto-rfpf-new/yocto-rfpf/build/tmp/work/cortexa9hf-vfp-neon-ubinux-linux-gnueabi/optee-os/2.0.0+gitAUTOINC+ca6737b41c-r0/git/lib/libutee/tee_api_arith.c:526
    1270:	4b0e      	ldr	r3, [pc, #56]	; (12ac <TEE_BigIntIsProbablePrime+0x3c>)
/home/yocto/yocto-rfpf-new/yocto-rfpf/build/tmp/work/cortexa9hf-vfp-neon-ubinux-linux-gnueabi/optee-os/2.0.0+gitAUTOINC+ca6737b41c-r0/git/lib/libutee/tee_api_arith.c:529
    1272:	294f      	cmp	r1, #79	; 0x4f
/home/yocto/yocto-rfpf-new/yocto-rfpf/build/tmp/work/cortexa9hf-vfp-neon-ubinux-linux-gnueabi/optee-os/2.0.0+gitAUTOINC+ca6737b41c-r0/git/lib/libutee/tee_api_arith.c:526
    1274:	b507      	push	{r0, r1, r2, lr}
    1276:	4a0e      	ldr	r2, [pc, #56]	; (12b0 <TEE_BigIntIsProbablePrime+0x40>)
    1278:	447b      	add	r3, pc
    127a:	589b      	ldr	r3, [r3, r2]
    127c:	681a      	ldr	r2, [r3, #0]
    127e:	9201      	str	r2, [sp, #4]
/home/yocto/yocto-rfpf-new/yocto-rfpf/build/tmp/work/cortexa9hf-vfp-neon-ubinux-linux-gnueabi/optee-os/2.0.0+gitAUTOINC+ca6737b41c-r0/git/lib/libutee/tee_api_arith.c:529
    1280:	d905      	bls.n	128e <TEE_BigIntIsProbablePrime+0x1e>
/home/yocto/yocto-rfpf-new/yocto-rfpf/build/tmp/work/cortexa9hf-vfp-neon-ubinux-linux-gnueabi/optee-os/2.0.0+gitAUTOINC+ca6737b41c-r0/git/lib/libutee/tee_api_arith.c:532
    1282:	f5b1 7f80 	cmp.w	r1, #256	; 0x100
/home/yocto/yocto-rfpf-new/yocto-rfpf/build/tmp/work/cortexa9hf-vfp-neon-ubinux-linux-gnueabi/optee-os/2.0.0+gitAUTOINC+ca6737b41c-r0/git/lib/libutee/tee_api_arith.c:533
    1286:	bf88      	it	hi
    1288:	f44f 7180 	movhi.w	r1, #256	; 0x100
    128c:	e000      	b.n	1290 <TEE_BigIntIsProbablePrime+0x20>
/home/yocto/yocto-rfpf-new/yocto-rfpf/build/tmp/work/cortexa9hf-vfp-neon-ubinux-linux-gnueabi/optee-os/2.0.0+gitAUTOINC+ca6737b41c-r0/git/lib/libutee/tee_api_arith.c:530
    128e:	2150      	movs	r1, #80	; 0x50
/home/yocto/yocto-rfpf-new/yocto-rfpf/build/tmp/work/cortexa9hf-vfp-neon-ubinux-linux-gnueabi/optee-os/2.0.0+gitAUTOINC+ca6737b41c-r0/git/lib/libutee/tee_api_arith.c:535
    1290:	9a01      	ldr	r2, [sp, #4]
    1292:	681b      	ldr	r3, [r3, #0]
    1294:	429a      	cmp	r2, r3
    1296:	d001      	beq.n	129c <TEE_BigIntIsProbablePrime+0x2c>
    1298:	f001 fede 	bl	3058 <__stack_chk_fail>
    129c:	4a05      	ldr	r2, [pc, #20]	; (12b4 <TEE_BigIntIsProbablePrime+0x44>)
    129e:	447a      	add	r2, pc
/home/yocto/yocto-rfpf-new/yocto-rfpf/build/tmp/work/cortexa9hf-vfp-neon-ubinux-linux-gnueabi/optee-os/2.0.0+gitAUTOINC+ca6737b41c-r0/git/lib/libutee/tee_api_arith.c:536
    12a0:	b003      	add	sp, #12
    12a2:	f85d eb04 	ldr.w	lr, [sp], #4
/home/yocto/yocto-rfpf-new/yocto-rfpf/build/tmp/work/cortexa9hf-vfp-neon-ubinux-linux-gnueabi/optee-os/2.0.0+gitAUTOINC+ca6737b41c-r0/git/lib/libutee/tee_api_arith.c:535
    12a6:	f003 b839 	b.w	431c <mpa_is_prob_prime>
    12aa:	bf00      	nop
    12ac:	000072b4 	.word	0x000072b4
    12b0:	0000000c 	.word	0x0000000c
    12b4:	00007e1e 	.word	0x00007e1e

000012b8 <TEE_BigIntConvertToFMM>:
TEE_BigIntConvertToFMM():
/home/yocto/yocto-rfpf-new/yocto-rfpf/build/tmp/work/cortexa9hf-vfp-neon-ubinux-linux-gnueabi/optee-os/2.0.0+gitAUTOINC+ca6737b41c-r0/git/lib/libutee/tee_api_arith.c:549
    12b8:	b530      	push	{r4, r5, lr}
    12ba:	461d      	mov	r5, r3
    12bc:	4b0b      	ldr	r3, [pc, #44]	; (12ec <TEE_BigIntConvertToFMM+0x34>)
    12be:	b085      	sub	sp, #20
    12c0:	4c0b      	ldr	r4, [pc, #44]	; (12f0 <TEE_BigIntConvertToFMM+0x38>)
    12c2:	447b      	add	r3, pc
    12c4:	591c      	ldr	r4, [r3, r4]
    12c6:	6823      	ldr	r3, [r4, #0]
    12c8:	9303      	str	r3, [sp, #12]
/home/yocto/yocto-rfpf-new/yocto-rfpf/build/tmp/work/cortexa9hf-vfp-neon-ubinux-linux-gnueabi/optee-os/2.0.0+gitAUTOINC+ca6737b41c-r0/git/lib/libutee/tee_api_arith.c:556
    12ca:	4b0a      	ldr	r3, [pc, #40]	; (12f4 <TEE_BigIntConvertToFMM+0x3c>)
    12cc:	447b      	add	r3, pc
    12ce:	9301      	str	r3, [sp, #4]
    12d0:	68ab      	ldr	r3, [r5, #8]
    12d2:	9300      	str	r3, [sp, #0]
    12d4:	4613      	mov	r3, r2
    12d6:	686a      	ldr	r2, [r5, #4]
    12d8:	f002 ffee 	bl	42b8 <mpa_montgomery_mul>
/home/yocto/yocto-rfpf-new/yocto-rfpf/build/tmp/work/cortexa9hf-vfp-neon-ubinux-linux-gnueabi/optee-os/2.0.0+gitAUTOINC+ca6737b41c-r0/git/lib/libutee/tee_api_arith.c:558
    12dc:	9a03      	ldr	r2, [sp, #12]
    12de:	6823      	ldr	r3, [r4, #0]
    12e0:	429a      	cmp	r2, r3
    12e2:	d001      	beq.n	12e8 <TEE_BigIntConvertToFMM+0x30>
    12e4:	f001 feb8 	bl	3058 <__stack_chk_fail>
    12e8:	b005      	add	sp, #20
    12ea:	bd30      	pop	{r4, r5, pc}
    12ec:	0000726a 	.word	0x0000726a
    12f0:	0000000c 	.word	0x0000000c
    12f4:	00007df0 	.word	0x00007df0

000012f8 <TEE_BigIntConvertFromFMM>:
TEE_BigIntConvertFromFMM():
/home/yocto/yocto-rfpf-new/yocto-rfpf/build/tmp/work/cortexa9hf-vfp-neon-ubinux-linux-gnueabi/optee-os/2.0.0+gitAUTOINC+ca6737b41c-r0/git/lib/libutee/tee_api_arith.c:567
    12f8:	e92d 4ff0 	stmdb	sp!, {r4, r5, r6, r7, r8, r9, sl, fp, lr}
    12fc:	4689      	mov	r9, r1
    12fe:	4918      	ldr	r1, [pc, #96]	; (1360 <TEE_BigIntConvertFromFMM+0x68>)
    1300:	469b      	mov	fp, r3
    1302:	b085      	sub	sp, #20
    1304:	4b17      	ldr	r3, [pc, #92]	; (1364 <TEE_BigIntConvertFromFMM+0x6c>)
/home/yocto/yocto-rfpf-new/yocto-rfpf/build/tmp/work/cortexa9hf-vfp-neon-ubinux-linux-gnueabi/optee-os/2.0.0+gitAUTOINC+ca6737b41c-r0/git/lib/libutee/tee_api_arith.c:579
    1306:	ad02      	add	r5, sp, #8
/home/yocto/yocto-rfpf-new/yocto-rfpf/build/tmp/work/cortexa9hf-vfp-neon-ubinux-linux-gnueabi/optee-os/2.0.0+gitAUTOINC+ca6737b41c-r0/git/lib/libutee/tee_api_arith.c:567
    1308:	4607      	mov	r7, r0
/home/yocto/yocto-rfpf-new/yocto-rfpf/build/tmp/work/cortexa9hf-vfp-neon-ubinux-linux-gnueabi/optee-os/2.0.0+gitAUTOINC+ca6737b41c-r0/git/lib/libutee/tee_api_arith.c:579
    130a:	4c17      	ldr	r4, [pc, #92]	; (1368 <TEE_BigIntConvertFromFMM+0x70>)
    130c:	4628      	mov	r0, r5
/home/yocto/yocto-rfpf-new/yocto-rfpf/build/tmp/work/cortexa9hf-vfp-neon-ubinux-linux-gnueabi/optee-os/2.0.0+gitAUTOINC+ca6737b41c-r0/git/lib/libutee/tee_api_arith.c:567
    130e:	4692      	mov	sl, r2
    1310:	4479      	add	r1, pc
    1312:	58ce      	ldr	r6, [r1, r3]
/home/yocto/yocto-rfpf-new/yocto-rfpf/build/tmp/work/cortexa9hf-vfp-neon-ubinux-linux-gnueabi/optee-os/2.0.0+gitAUTOINC+ca6737b41c-r0/git/lib/libutee/tee_api_arith.c:579
    1314:	447c      	add	r4, pc
    1316:	4621      	mov	r1, r4
/home/yocto/yocto-rfpf-new/yocto-rfpf/build/tmp/work/cortexa9hf-vfp-neon-ubinux-linux-gnueabi/optee-os/2.0.0+gitAUTOINC+ca6737b41c-r0/git/lib/libutee/tee_api_arith.c:567
    1318:	6833      	ldr	r3, [r6, #0]
    131a:	9303      	str	r3, [sp, #12]
/home/yocto/yocto-rfpf-new/yocto-rfpf/build/tmp/work/cortexa9hf-vfp-neon-ubinux-linux-gnueabi/optee-os/2.0.0+gitAUTOINC+ca6737b41c-r0/git/lib/libutee/tee_api_arith.c:579
    131c:	f004 f88a 	bl	5434 <mpa_alloc_static_temp_var>
/home/yocto/yocto-rfpf-new/yocto-rfpf/build/tmp/work/cortexa9hf-vfp-neon-ubinux-linux-gnueabi/optee-os/2.0.0+gitAUTOINC+ca6737b41c-r0/git/lib/libutee/tee_api_arith.c:582
    1320:	f8dd 8008 	ldr.w	r8, [sp, #8]
    1324:	f002 fe40 	bl	3fa8 <mpa_constant_one>
    1328:	f8db 3008 	ldr.w	r3, [fp, #8]
    132c:	464a      	mov	r2, r9
    132e:	4601      	mov	r1, r0
    1330:	4640      	mov	r0, r8
    1332:	e9cd 3400 	strd	r3, r4, [sp]
    1336:	4653      	mov	r3, sl
    1338:	f002 ffbe 	bl	42b8 <mpa_montgomery_mul>
/home/yocto/yocto-rfpf-new/yocto-rfpf/build/tmp/work/cortexa9hf-vfp-neon-ubinux-linux-gnueabi/optee-os/2.0.0+gitAUTOINC+ca6737b41c-r0/git/lib/libutee/tee_api_arith.c:585
    133c:	4638      	mov	r0, r7
    133e:	9902      	ldr	r1, [sp, #8]
    1340:	f002 fd6a 	bl	3e18 <mpa_copy>
/home/yocto/yocto-rfpf-new/yocto-rfpf/build/tmp/work/cortexa9hf-vfp-neon-ubinux-linux-gnueabi/optee-os/2.0.0+gitAUTOINC+ca6737b41c-r0/git/lib/libutee/tee_api_arith.c:586
    1344:	4621      	mov	r1, r4
    1346:	4628      	mov	r0, r5
    1348:	f004 f88e 	bl	5468 <mpa_free_static_temp_var>
/home/yocto/yocto-rfpf-new/yocto-rfpf/build/tmp/work/cortexa9hf-vfp-neon-ubinux-linux-gnueabi/optee-os/2.0.0+gitAUTOINC+ca6737b41c-r0/git/lib/libutee/tee_api_arith.c:587
    134c:	9a03      	ldr	r2, [sp, #12]
    134e:	6833      	ldr	r3, [r6, #0]
    1350:	429a      	cmp	r2, r3
    1352:	d001      	beq.n	1358 <TEE_BigIntConvertFromFMM+0x60>
    1354:	f001 fe80 	bl	3058 <__stack_chk_fail>
    1358:	b005      	add	sp, #20
    135a:	e8bd 8ff0 	ldmia.w	sp!, {r4, r5, r6, r7, r8, r9, sl, fp, pc}
    135e:	bf00      	nop
    1360:	0000721c 	.word	0x0000721c
    1364:	0000000c 	.word	0x0000000c
    1368:	00007da8 	.word	0x00007da8

0000136c <TEE_BigIntComputeFMM>:
TEE_BigIntComputeFMM():
/home/yocto/yocto-rfpf-new/yocto-rfpf/build/tmp/work/cortexa9hf-vfp-neon-ubinux-linux-gnueabi/optee-os/2.0.0+gitAUTOINC+ca6737b41c-r0/git/lib/libutee/tee_api_arith.c:597
    136c:	b530      	push	{r4, r5, lr}
    136e:	b085      	sub	sp, #20
    1370:	4c0a      	ldr	r4, [pc, #40]	; (139c <TEE_BigIntComputeFMM+0x30>)
    1372:	4d0b      	ldr	r5, [pc, #44]	; (13a0 <TEE_BigIntComputeFMM+0x34>)
    1374:	447c      	add	r4, pc
    1376:	5964      	ldr	r4, [r4, r5]
    1378:	6825      	ldr	r5, [r4, #0]
    137a:	9503      	str	r5, [sp, #12]
/home/yocto/yocto-rfpf-new/yocto-rfpf/build/tmp/work/cortexa9hf-vfp-neon-ubinux-linux-gnueabi/optee-os/2.0.0+gitAUTOINC+ca6737b41c-r0/git/lib/libutee/tee_api_arith.c:604
    137c:	4d09      	ldr	r5, [pc, #36]	; (13a4 <TEE_BigIntComputeFMM+0x38>)
    137e:	447d      	add	r5, pc
    1380:	9501      	str	r5, [sp, #4]
    1382:	9d08      	ldr	r5, [sp, #32]
    1384:	68ad      	ldr	r5, [r5, #8]
    1386:	9500      	str	r5, [sp, #0]
    1388:	f002 ff96 	bl	42b8 <mpa_montgomery_mul>
/home/yocto/yocto-rfpf-new/yocto-rfpf/build/tmp/work/cortexa9hf-vfp-neon-ubinux-linux-gnueabi/optee-os/2.0.0+gitAUTOINC+ca6737b41c-r0/git/lib/libutee/tee_api_arith.c:606
    138c:	9a03      	ldr	r2, [sp, #12]
    138e:	6823      	ldr	r3, [r4, #0]
    1390:	429a      	cmp	r2, r3
    1392:	d001      	beq.n	1398 <TEE_BigIntComputeFMM+0x2c>
    1394:	f001 fe60 	bl	3058 <__stack_chk_fail>
    1398:	b005      	add	sp, #20
    139a:	bd30      	pop	{r4, r5, pc}
    139c:	000071b8 	.word	0x000071b8
    13a0:	0000000c 	.word	0x0000000c
    13a4:	00007d3e 	.word	0x00007d3e

000013a8 <TEE_BigInt_Panic>:
TEE_BigInt_Panic():
/home/yocto/yocto-rfpf-new/yocto-rfpf/build/tmp/work/cortexa9hf-vfp-neon-ubinux-linux-gnueabi/optee-os/2.0.0+gitAUTOINC+ca6737b41c-r0/git/lib/libutee/tee_api_arith.c:63
    13a8:	b51f      	push	{r0, r1, r2, r3, r4, lr}
/home/yocto/yocto-rfpf-new/yocto-rfpf/build/tmp/work/cortexa9hf-vfp-neon-ubinux-linux-gnueabi/optee-os/2.0.0+gitAUTOINC+ca6737b41c-r0/git/lib/libutee/tee_api_arith.c:64
    13aa:	4601      	mov	r1, r0
/home/yocto/yocto-rfpf-new/yocto-rfpf/build/tmp/work/cortexa9hf-vfp-neon-ubinux-linux-gnueabi/optee-os/2.0.0+gitAUTOINC+ca6737b41c-r0/git/lib/libutee/tee_api_arith.c:63
    13ac:	4b0d      	ldr	r3, [pc, #52]	; (13e4 <TEE_BigInt_Panic+0x3c>)
    13ae:	4a0e      	ldr	r2, [pc, #56]	; (13e8 <TEE_BigInt_Panic+0x40>)
/home/yocto/yocto-rfpf-new/yocto-rfpf/build/tmp/work/cortexa9hf-vfp-neon-ubinux-linux-gnueabi/optee-os/2.0.0+gitAUTOINC+ca6737b41c-r0/git/lib/libutee/tee_api_arith.c:64
    13b0:	480e      	ldr	r0, [pc, #56]	; (13ec <TEE_BigInt_Panic+0x44>)
/home/yocto/yocto-rfpf-new/yocto-rfpf/build/tmp/work/cortexa9hf-vfp-neon-ubinux-linux-gnueabi/optee-os/2.0.0+gitAUTOINC+ca6737b41c-r0/git/lib/libutee/tee_api_arith.c:65
    13b2:	4c0b      	ldr	r4, [pc, #44]	; (13e0 <TEE_BigInt_Panic+0x38>)
/home/yocto/yocto-rfpf-new/yocto-rfpf/build/tmp/work/cortexa9hf-vfp-neon-ubinux-linux-gnueabi/optee-os/2.0.0+gitAUTOINC+ca6737b41c-r0/git/lib/libutee/tee_api_arith.c:63
    13b4:	447b      	add	r3, pc
    13b6:	589b      	ldr	r3, [r3, r2]
/home/yocto/yocto-rfpf-new/yocto-rfpf/build/tmp/work/cortexa9hf-vfp-neon-ubinux-linux-gnueabi/optee-os/2.0.0+gitAUTOINC+ca6737b41c-r0/git/lib/libutee/tee_api_arith.c:64
    13b8:	4478      	add	r0, pc
/home/yocto/yocto-rfpf-new/yocto-rfpf/build/tmp/work/cortexa9hf-vfp-neon-ubinux-linux-gnueabi/optee-os/2.0.0+gitAUTOINC+ca6737b41c-r0/git/lib/libutee/tee_api_arith.c:63
    13ba:	681b      	ldr	r3, [r3, #0]
    13bc:	9303      	str	r3, [sp, #12]
/home/yocto/yocto-rfpf-new/yocto-rfpf/build/tmp/work/cortexa9hf-vfp-neon-ubinux-linux-gnueabi/optee-os/2.0.0+gitAUTOINC+ca6737b41c-r0/git/lib/libutee/tee_api_arith.c:64
    13be:	f000 ff63 	bl	2288 <printf>
/home/yocto/yocto-rfpf-new/yocto-rfpf/build/tmp/work/cortexa9hf-vfp-neon-ubinux-linux-gnueabi/optee-os/2.0.0+gitAUTOINC+ca6737b41c-r0/git/lib/libutee/tee_api_arith.c:65
    13c2:	4b0b      	ldr	r3, [pc, #44]	; (13f0 <TEE_BigInt_Panic+0x48>)
    13c4:	2141      	movs	r1, #65	; 0x41
    13c6:	480b      	ldr	r0, [pc, #44]	; (13f4 <TEE_BigInt_Panic+0x4c>)
    13c8:	447b      	add	r3, pc
    13ca:	4478      	add	r0, pc
    13cc:	e9cd 3400 	strd	r3, r4, [sp]
    13d0:	2301      	movs	r3, #1
    13d2:	461a      	mov	r2, r3
    13d4:	f002 fb22 	bl	3a1c <trace_printf>
    13d8:	4620      	mov	r0, r4
    13da:	f000 fbef 	bl	1bbc <__TEE_Panic>
    13de:	e7fe      	b.n	13de <TEE_BigInt_Panic+0x36>
    13e0:	00b16127 	.word	0x00b16127
    13e4:	00007178 	.word	0x00007178
    13e8:	0000000c 	.word	0x0000000c
    13ec:	000069eb 	.word	0x000069eb
    13f0:	000069a0 	.word	0x000069a0
    13f4:	000069a9 	.word	0x000069a9

000013f8 <__utee_from_param>:
__utee_from_param():
/home/yocto/yocto-rfpf-new/yocto-rfpf/build/tmp/work/cortexa9hf-vfp-neon-ubinux-linux-gnueabi/optee-os/2.0.0+gitAUTOINC+ca6737b41c-r0/git/lib/libutee/tee_api.c:42
    13f8:	4b1c      	ldr	r3, [pc, #112]	; (146c <__utee_from_param+0x74>)
    13fa:	e92d 43f7 	stmdb	sp!, {r0, r1, r2, r4, r5, r6, r7, r8, r9, lr}
    13fe:	4616      	mov	r6, r2
    1400:	4c1b      	ldr	r4, [pc, #108]	; (1470 <__utee_from_param+0x78>)
/home/yocto/yocto-rfpf-new/yocto-rfpf/build/tmp/work/cortexa9hf-vfp-neon-ubinux-linux-gnueabi/optee-os/2.0.0+gitAUTOINC+ca6737b41c-r0/git/lib/libutee/tee_api.c:61
    1402:	f04f 0800 	mov.w	r8, #0
    1406:	f04f 0900 	mov.w	r9, #0
/home/yocto/yocto-rfpf-new/yocto-rfpf/build/tmp/work/cortexa9hf-vfp-neon-ubinux-linux-gnueabi/optee-os/2.0.0+gitAUTOINC+ca6737b41c-r0/git/lib/libutee/tee_api.c:42
    140a:	447b      	add	r3, pc
    140c:	591d      	ldr	r5, [r3, r4]
    140e:	682b      	ldr	r3, [r5, #0]
/home/yocto/yocto-rfpf-new/yocto-rfpf/build/tmp/work/cortexa9hf-vfp-neon-ubinux-linux-gnueabi/optee-os/2.0.0+gitAUTOINC+ca6737b41c-r0/git/lib/libutee/tee_api.c:45
    1410:	6001      	str	r1, [r0, #0]
/home/yocto/yocto-rfpf-new/yocto-rfpf/build/tmp/work/cortexa9hf-vfp-neon-ubinux-linux-gnueabi/optee-os/2.0.0+gitAUTOINC+ca6737b41c-r0/git/lib/libutee/tee_api.c:42
    1412:	9301      	str	r3, [sp, #4]
/home/yocto/yocto-rfpf-new/yocto-rfpf/build/tmp/work/cortexa9hf-vfp-neon-ubinux-linux-gnueabi/optee-os/2.0.0+gitAUTOINC+ca6737b41c-r0/git/lib/libutee/tee_api.c:45
    1414:	2300      	movs	r3, #0
/home/yocto/yocto-rfpf-new/yocto-rfpf/build/tmp/work/cortexa9hf-vfp-neon-ubinux-linux-gnueabi/optee-os/2.0.0+gitAUTOINC+ca6737b41c-r0/git/lib/libutee/tee_api.c:57
    1416:	461f      	mov	r7, r3
/home/yocto/yocto-rfpf-new/yocto-rfpf/build/tmp/work/cortexa9hf-vfp-neon-ubinux-linux-gnueabi/optee-os/2.0.0+gitAUTOINC+ca6737b41c-r0/git/lib/libutee/tee_api.c:45
    1418:	6043      	str	r3, [r0, #4]
/home/yocto/yocto-rfpf-new/yocto-rfpf/build/tmp/work/cortexa9hf-vfp-neon-ubinux-linux-gnueabi/optee-os/2.0.0+gitAUTOINC+ca6737b41c-r0/git/lib/libutee/tee_api.c:47
    141a:	fa21 f403 	lsr.w	r4, r1, r3
    141e:	f004 040f 	and.w	r4, r4, #15
    1422:	3c01      	subs	r4, #1
    1424:	2c06      	cmp	r4, #6
    1426:	d80d      	bhi.n	1444 <__utee_from_param+0x4c>
    1428:	e8df f004 	tbb	[pc, r4]
    142c:	0c040404 	.word	0x0c040404
    1430:	0404      	.short	0x0404
    1432:	04          	.byte	0x04
    1433:	00          	.byte	0x00
/home/yocto/yocto-rfpf-new/yocto-rfpf/build/tmp/work/cortexa9hf-vfp-neon-ubinux-linux-gnueabi/optee-os/2.0.0+gitAUTOINC+ca6737b41c-r0/git/lib/libutee/tee_api.c:57
    1434:	f852 4013 	ldr.w	r4, [r2, r3, lsl #1]
    1438:	6084      	str	r4, [r0, #8]
/home/yocto/yocto-rfpf-new/yocto-rfpf/build/tmp/work/cortexa9hf-vfp-neon-ubinux-linux-gnueabi/optee-os/2.0.0+gitAUTOINC+ca6737b41c-r0/git/lib/libutee/tee_api.c:58
    143a:	6874      	ldr	r4, [r6, #4]
/home/yocto/yocto-rfpf-new/yocto-rfpf/build/tmp/work/cortexa9hf-vfp-neon-ubinux-linux-gnueabi/optee-os/2.0.0+gitAUTOINC+ca6737b41c-r0/git/lib/libutee/tee_api.c:57
    143c:	60c7      	str	r7, [r0, #12]
/home/yocto/yocto-rfpf-new/yocto-rfpf/build/tmp/work/cortexa9hf-vfp-neon-ubinux-linux-gnueabi/optee-os/2.0.0+gitAUTOINC+ca6737b41c-r0/git/lib/libutee/tee_api.c:58
    143e:	6104      	str	r4, [r0, #16]
    1440:	6147      	str	r7, [r0, #20]
/home/yocto/yocto-rfpf-new/yocto-rfpf/build/tmp/work/cortexa9hf-vfp-neon-ubinux-linux-gnueabi/optee-os/2.0.0+gitAUTOINC+ca6737b41c-r0/git/lib/libutee/tee_api.c:59
    1442:	e003      	b.n	144c <__utee_from_param+0x54>
/home/yocto/yocto-rfpf-new/yocto-rfpf/build/tmp/work/cortexa9hf-vfp-neon-ubinux-linux-gnueabi/optee-os/2.0.0+gitAUTOINC+ca6737b41c-r0/git/lib/libutee/tee_api.c:61
    1444:	e9c0 8902 	strd	r8, r9, [r0, #8]
/home/yocto/yocto-rfpf-new/yocto-rfpf/build/tmp/work/cortexa9hf-vfp-neon-ubinux-linux-gnueabi/optee-os/2.0.0+gitAUTOINC+ca6737b41c-r0/git/lib/libutee/tee_api.c:62
    1448:	e9c0 8904 	strd	r8, r9, [r0, #16]
    144c:	3304      	adds	r3, #4
    144e:	3608      	adds	r6, #8
/home/yocto/yocto-rfpf-new/yocto-rfpf/build/tmp/work/cortexa9hf-vfp-neon-ubinux-linux-gnueabi/optee-os/2.0.0+gitAUTOINC+ca6737b41c-r0/git/lib/libutee/tee_api.c:46 (discriminator 2)
    1450:	2b10      	cmp	r3, #16
    1452:	f100 0010 	add.w	r0, r0, #16
    1456:	d1e0      	bne.n	141a <__utee_from_param+0x22>
/home/yocto/yocto-rfpf-new/yocto-rfpf/build/tmp/work/cortexa9hf-vfp-neon-ubinux-linux-gnueabi/optee-os/2.0.0+gitAUTOINC+ca6737b41c-r0/git/lib/libutee/tee_api.c:66
    1458:	9a01      	ldr	r2, [sp, #4]
    145a:	682b      	ldr	r3, [r5, #0]
    145c:	429a      	cmp	r2, r3
    145e:	d001      	beq.n	1464 <__utee_from_param+0x6c>
    1460:	f001 fdfa 	bl	3058 <__stack_chk_fail>
    1464:	b003      	add	sp, #12
    1466:	e8bd 83f0 	ldmia.w	sp!, {r4, r5, r6, r7, r8, r9, pc}
    146a:	bf00      	nop
    146c:	00007122 	.word	0x00007122
    1470:	0000000c 	.word	0x0000000c

00001474 <__utee_to_param>:
__utee_to_param():
/home/yocto/yocto-rfpf-new/yocto-rfpf/build/tmp/work/cortexa9hf-vfp-neon-ubinux-linux-gnueabi/optee-os/2.0.0+gitAUTOINC+ca6737b41c-r0/git/lib/libutee/tee_api.c:70
    1474:	4b18      	ldr	r3, [pc, #96]	; (14d8 <__utee_to_param+0x64>)
    1476:	e92d 41f3 	stmdb	sp!, {r0, r1, r4, r5, r6, r7, r8, lr}
    147a:	4606      	mov	r6, r0
    147c:	4c17      	ldr	r4, [pc, #92]	; (14dc <__utee_to_param+0x68>)
/home/yocto/yocto-rfpf-new/yocto-rfpf/build/tmp/work/cortexa9hf-vfp-neon-ubinux-linux-gnueabi/optee-os/2.0.0+gitAUTOINC+ca6737b41c-r0/git/lib/libutee/tee_api.c:72
    147e:	6817      	ldr	r7, [r2, #0]
/home/yocto/yocto-rfpf-new/yocto-rfpf/build/tmp/work/cortexa9hf-vfp-neon-ubinux-linux-gnueabi/optee-os/2.0.0+gitAUTOINC+ca6737b41c-r0/git/lib/libutee/tee_api.c:70
    1480:	447b      	add	r3, pc
    1482:	591c      	ldr	r4, [r3, r4]
    1484:	6823      	ldr	r3, [r4, #0]
    1486:	4625      	mov	r5, r4
    1488:	9301      	str	r3, [sp, #4]
/home/yocto/yocto-rfpf-new/yocto-rfpf/build/tmp/work/cortexa9hf-vfp-neon-ubinux-linux-gnueabi/optee-os/2.0.0+gitAUTOINC+ca6737b41c-r0/git/lib/libutee/tee_api.c:72
    148a:	2300      	movs	r3, #0
/home/yocto/yocto-rfpf-new/yocto-rfpf/build/tmp/work/cortexa9hf-vfp-neon-ubinux-linux-gnueabi/optee-os/2.0.0+gitAUTOINC+ca6737b41c-r0/git/lib/libutee/tee_api.c:78
    148c:	fa27 f403 	lsr.w	r4, r7, r3
/home/yocto/yocto-rfpf-new/yocto-rfpf/build/tmp/work/cortexa9hf-vfp-neon-ubinux-linux-gnueabi/optee-os/2.0.0+gitAUTOINC+ca6737b41c-r0/git/lib/libutee/tee_api.c:75
    1490:	f8d2 c008 	ldr.w	ip, [r2, #8]
/home/yocto/yocto-rfpf-new/yocto-rfpf/build/tmp/work/cortexa9hf-vfp-neon-ubinux-linux-gnueabi/optee-os/2.0.0+gitAUTOINC+ca6737b41c-r0/git/lib/libutee/tee_api.c:76
    1494:	f8d2 e010 	ldr.w	lr, [r2, #16]
/home/yocto/yocto-rfpf-new/yocto-rfpf/build/tmp/work/cortexa9hf-vfp-neon-ubinux-linux-gnueabi/optee-os/2.0.0+gitAUTOINC+ca6737b41c-r0/git/lib/libutee/tee_api.c:78
    1498:	f004 040f 	and.w	r4, r4, #15
    149c:	3c01      	subs	r4, #1
    149e:	2c06      	cmp	r4, #6
    14a0:	d809      	bhi.n	14b6 <__utee_to_param+0x42>
    14a2:	e8df f004 	tbb	[pc, r4]
    14a6:	0404      	.short	0x0404
    14a8:	04040804 	.word	0x04040804
    14ac:	04          	.byte	0x04
    14ad:	00          	.byte	0x00
/home/yocto/yocto-rfpf-new/yocto-rfpf/build/tmp/work/cortexa9hf-vfp-neon-ubinux-linux-gnueabi/optee-os/2.0.0+gitAUTOINC+ca6737b41c-r0/git/lib/libutee/tee_api.c:88
    14ae:	f840 c013 	str.w	ip, [r0, r3, lsl #1]
/home/yocto/yocto-rfpf-new/yocto-rfpf/build/tmp/work/cortexa9hf-vfp-neon-ubinux-linux-gnueabi/optee-os/2.0.0+gitAUTOINC+ca6737b41c-r0/git/lib/libutee/tee_api.c:89
    14b2:	f8c6 e004 	str.w	lr, [r6, #4]
    14b6:	3304      	adds	r3, #4
    14b8:	3210      	adds	r2, #16
/home/yocto/yocto-rfpf-new/yocto-rfpf/build/tmp/work/cortexa9hf-vfp-neon-ubinux-linux-gnueabi/optee-os/2.0.0+gitAUTOINC+ca6737b41c-r0/git/lib/libutee/tee_api.c:74 (discriminator 2)
    14ba:	2b10      	cmp	r3, #16
    14bc:	f106 0608 	add.w	r6, r6, #8
    14c0:	d1e4      	bne.n	148c <__utee_to_param+0x18>
/home/yocto/yocto-rfpf-new/yocto-rfpf/build/tmp/work/cortexa9hf-vfp-neon-ubinux-linux-gnueabi/optee-os/2.0.0+gitAUTOINC+ca6737b41c-r0/git/lib/libutee/tee_api.c:96
    14c2:	b101      	cbz	r1, 14c6 <__utee_to_param+0x52>
/home/yocto/yocto-rfpf-new/yocto-rfpf/build/tmp/work/cortexa9hf-vfp-neon-ubinux-linux-gnueabi/optee-os/2.0.0+gitAUTOINC+ca6737b41c-r0/git/lib/libutee/tee_api.c:97
    14c4:	600f      	str	r7, [r1, #0]
/home/yocto/yocto-rfpf-new/yocto-rfpf/build/tmp/work/cortexa9hf-vfp-neon-ubinux-linux-gnueabi/optee-os/2.0.0+gitAUTOINC+ca6737b41c-r0/git/lib/libutee/tee_api.c:98
    14c6:	9a01      	ldr	r2, [sp, #4]
    14c8:	682b      	ldr	r3, [r5, #0]
    14ca:	429a      	cmp	r2, r3
    14cc:	d001      	beq.n	14d2 <__utee_to_param+0x5e>
    14ce:	f001 fdc3 	bl	3058 <__stack_chk_fail>
    14d2:	b002      	add	sp, #8
    14d4:	e8bd 81f0 	ldmia.w	sp!, {r4, r5, r6, r7, r8, pc}
    14d8:	000070ac 	.word	0x000070ac
    14dc:	0000000c 	.word	0x0000000c

000014e0 <TEE_OpenTASession>:
TEE_OpenTASession():
/home/yocto/yocto-rfpf-new/yocto-rfpf/build/tmp/work/cortexa9hf-vfp-neon-ubinux-linux-gnueabi/optee-os/2.0.0+gitAUTOINC+ca6737b41c-r0/git/lib/libutee/tee_api.c:105
    14e0:	e92d 47f0 	stmdb	sp!, {r4, r5, r6, r7, r8, r9, sl, lr}
    14e4:	461f      	mov	r7, r3
    14e6:	4b18      	ldr	r3, [pc, #96]	; (1548 <TEE_OpenTASession+0x68>)
    14e8:	4689      	mov	r9, r1
    14ea:	4611      	mov	r1, r2
    14ec:	4a17      	ldr	r2, [pc, #92]	; (154c <TEE_OpenTASession+0x6c>)
    14ee:	b098      	sub	sp, #96	; 0x60
    14f0:	4606      	mov	r6, r0
/home/yocto/yocto-rfpf-new/yocto-rfpf/build/tmp/work/cortexa9hf-vfp-neon-ubinux-linux-gnueabi/optee-os/2.0.0+gitAUTOINC+ca6737b41c-r0/git/lib/libutee/tee_api.c:110
    14f2:	ac04      	add	r4, sp, #16
/home/yocto/yocto-rfpf-new/yocto-rfpf/build/tmp/work/cortexa9hf-vfp-neon-ubinux-linux-gnueabi/optee-os/2.0.0+gitAUTOINC+ca6737b41c-r0/git/lib/libutee/tee_api.c:105
    14f4:	f8dd 8080 	ldr.w	r8, [sp, #128]	; 0x80
    14f8:	f8dd a084 	ldr.w	sl, [sp, #132]	; 0x84
/home/yocto/yocto-rfpf-new/yocto-rfpf/build/tmp/work/cortexa9hf-vfp-neon-ubinux-linux-gnueabi/optee-os/2.0.0+gitAUTOINC+ca6737b41c-r0/git/lib/libutee/tee_api.c:110
    14fc:	4620      	mov	r0, r4
/home/yocto/yocto-rfpf-new/yocto-rfpf/build/tmp/work/cortexa9hf-vfp-neon-ubinux-linux-gnueabi/optee-os/2.0.0+gitAUTOINC+ca6737b41c-r0/git/lib/libutee/tee_api.c:105
    14fe:	447b      	add	r3, pc
    1500:	589d      	ldr	r5, [r3, r2]
/home/yocto/yocto-rfpf-new/yocto-rfpf/build/tmp/work/cortexa9hf-vfp-neon-ubinux-linux-gnueabi/optee-os/2.0.0+gitAUTOINC+ca6737b41c-r0/git/lib/libutee/tee_api.c:110
    1502:	463a      	mov	r2, r7
/home/yocto/yocto-rfpf-new/yocto-rfpf/build/tmp/work/cortexa9hf-vfp-neon-ubinux-linux-gnueabi/optee-os/2.0.0+gitAUTOINC+ca6737b41c-r0/git/lib/libutee/tee_api.c:105
    1504:	682b      	ldr	r3, [r5, #0]
    1506:	9317      	str	r3, [sp, #92]	; 0x5c
/home/yocto/yocto-rfpf-new/yocto-rfpf/build/tmp/work/cortexa9hf-vfp-neon-ubinux-linux-gnueabi/optee-os/2.0.0+gitAUTOINC+ca6737b41c-r0/git/lib/libutee/tee_api.c:110
    1508:	f7ff ff76 	bl	13f8 <__utee_from_param>
/home/yocto/yocto-rfpf-new/yocto-rfpf/build/tmp/work/cortexa9hf-vfp-neon-ubinux-linux-gnueabi/optee-os/2.0.0+gitAUTOINC+ca6737b41c-r0/git/lib/libutee/tee_api.c:111
    150c:	4622      	mov	r2, r4
    150e:	4649      	mov	r1, r9
    1510:	f8cd a000 	str.w	sl, [sp]
    1514:	4630      	mov	r0, r6
    1516:	ab03      	add	r3, sp, #12
    1518:	f7fe eff6 	blx	508 <utee_open_ta_session>
    151c:	4606      	mov	r6, r0
/home/yocto/yocto-rfpf-new/yocto-rfpf/build/tmp/work/cortexa9hf-vfp-neon-ubinux-linux-gnueabi/optee-os/2.0.0+gitAUTOINC+ca6737b41c-r0/git/lib/libutee/tee_api.c:113
    151e:	4622      	mov	r2, r4
    1520:	2100      	movs	r1, #0
    1522:	4638      	mov	r0, r7
    1524:	f7ff ffa6 	bl	1474 <__utee_to_param>
/home/yocto/yocto-rfpf-new/yocto-rfpf/build/tmp/work/cortexa9hf-vfp-neon-ubinux-linux-gnueabi/optee-os/2.0.0+gitAUTOINC+ca6737b41c-r0/git/lib/libutee/tee_api.c:119
    1528:	b10e      	cbz	r6, 152e <TEE_OpenTASession+0x4e>
/home/yocto/yocto-rfpf-new/yocto-rfpf/build/tmp/work/cortexa9hf-vfp-neon-ubinux-linux-gnueabi/optee-os/2.0.0+gitAUTOINC+ca6737b41c-r0/git/lib/libutee/tee_api.c:120
    152a:	2300      	movs	r3, #0
    152c:	9303      	str	r3, [sp, #12]
/home/yocto/yocto-rfpf-new/yocto-rfpf/build/tmp/work/cortexa9hf-vfp-neon-ubinux-linux-gnueabi/optee-os/2.0.0+gitAUTOINC+ca6737b41c-r0/git/lib/libutee/tee_api.c:122
    152e:	9b03      	ldr	r3, [sp, #12]
/home/yocto/yocto-rfpf-new/yocto-rfpf/build/tmp/work/cortexa9hf-vfp-neon-ubinux-linux-gnueabi/optee-os/2.0.0+gitAUTOINC+ca6737b41c-r0/git/lib/libutee/tee_api.c:124
    1530:	4630      	mov	r0, r6
    1532:	9a17      	ldr	r2, [sp, #92]	; 0x5c
/home/yocto/yocto-rfpf-new/yocto-rfpf/build/tmp/work/cortexa9hf-vfp-neon-ubinux-linux-gnueabi/optee-os/2.0.0+gitAUTOINC+ca6737b41c-r0/git/lib/libutee/tee_api.c:122
    1534:	f8c8 3000 	str.w	r3, [r8]
/home/yocto/yocto-rfpf-new/yocto-rfpf/build/tmp/work/cortexa9hf-vfp-neon-ubinux-linux-gnueabi/optee-os/2.0.0+gitAUTOINC+ca6737b41c-r0/git/lib/libutee/tee_api.c:124
    1538:	682b      	ldr	r3, [r5, #0]
    153a:	429a      	cmp	r2, r3
    153c:	d001      	beq.n	1542 <TEE_OpenTASession+0x62>
    153e:	f001 fd8b 	bl	3058 <__stack_chk_fail>
    1542:	b018      	add	sp, #96	; 0x60
    1544:	e8bd 87f0 	ldmia.w	sp!, {r4, r5, r6, r7, r8, r9, sl, pc}
    1548:	0000702e 	.word	0x0000702e
    154c:	0000000c 	.word	0x0000000c

00001550 <TEE_CloseTASession>:
TEE_CloseTASession():
/home/yocto/yocto-rfpf-new/yocto-rfpf/build/tmp/work/cortexa9hf-vfp-neon-ubinux-linux-gnueabi/optee-os/2.0.0+gitAUTOINC+ca6737b41c-r0/git/lib/libutee/tee_api.c:127
    1550:	b57f      	push	{r0, r1, r2, r3, r4, r5, r6, lr}
    1552:	4b14      	ldr	r3, [pc, #80]	; (15a4 <TEE_CloseTASession+0x54>)
    1554:	4a14      	ldr	r2, [pc, #80]	; (15a8 <TEE_CloseTASession+0x58>)
    1556:	447b      	add	r3, pc
    1558:	589d      	ldr	r5, [r3, r2]
    155a:	682b      	ldr	r3, [r5, #0]
    155c:	462e      	mov	r6, r5
    155e:	9303      	str	r3, [sp, #12]
/home/yocto/yocto-rfpf-new/yocto-rfpf/build/tmp/work/cortexa9hf-vfp-neon-ubinux-linux-gnueabi/optee-os/2.0.0+gitAUTOINC+ca6737b41c-r0/git/lib/libutee/tee_api.c:128
    1560:	b1c0      	cbz	r0, 1594 <TEE_CloseTASession+0x44>
/home/yocto/yocto-rfpf-new/yocto-rfpf/build/tmp/work/cortexa9hf-vfp-neon-ubinux-linux-gnueabi/optee-os/2.0.0+gitAUTOINC+ca6737b41c-r0/git/lib/libutee/tee_api.c:129
    1562:	f7fe efde 	blx	520 <utee_close_ta_session>
/home/yocto/yocto-rfpf-new/yocto-rfpf/build/tmp/work/cortexa9hf-vfp-neon-ubinux-linux-gnueabi/optee-os/2.0.0+gitAUTOINC+ca6737b41c-r0/git/lib/libutee/tee_api.c:131
    1566:	4604      	mov	r4, r0
    1568:	b1a0      	cbz	r0, 1594 <TEE_CloseTASession+0x44>
/home/yocto/yocto-rfpf-new/yocto-rfpf/build/tmp/work/cortexa9hf-vfp-neon-ubinux-linux-gnueabi/optee-os/2.0.0+gitAUTOINC+ca6737b41c-r0/git/lib/libutee/tee_api.c:132
    156a:	4b10      	ldr	r3, [pc, #64]	; (15ac <TEE_CloseTASession+0x5c>)
    156c:	2184      	movs	r1, #132	; 0x84
    156e:	4810      	ldr	r0, [pc, #64]	; (15b0 <TEE_CloseTASession+0x60>)
    1570:	447b      	add	r3, pc
    1572:	4478      	add	r0, pc
    1574:	e9cd 3400 	strd	r3, r4, [sp]
    1578:	2301      	movs	r3, #1
    157a:	461a      	mov	r2, r3
    157c:	f002 fa4e 	bl	3a1c <trace_printf>
    1580:	9a03      	ldr	r2, [sp, #12]
    1582:	682b      	ldr	r3, [r5, #0]
    1584:	429a      	cmp	r2, r3
    1586:	d109      	bne.n	159c <TEE_CloseTASession+0x4c>
    1588:	4620      	mov	r0, r4
/home/yocto/yocto-rfpf-new/yocto-rfpf/build/tmp/work/cortexa9hf-vfp-neon-ubinux-linux-gnueabi/optee-os/2.0.0+gitAUTOINC+ca6737b41c-r0/git/lib/libutee/tee_api.c:134
    158a:	b004      	add	sp, #16
    158c:	e8bd 4070 	ldmia.w	sp!, {r4, r5, r6, lr}
/home/yocto/yocto-rfpf-new/yocto-rfpf/build/tmp/work/cortexa9hf-vfp-neon-ubinux-linux-gnueabi/optee-os/2.0.0+gitAUTOINC+ca6737b41c-r0/git/lib/libutee/tee_api.c:132
    1590:	f000 bb14 	b.w	1bbc <__TEE_Panic>
/home/yocto/yocto-rfpf-new/yocto-rfpf/build/tmp/work/cortexa9hf-vfp-neon-ubinux-linux-gnueabi/optee-os/2.0.0+gitAUTOINC+ca6737b41c-r0/git/lib/libutee/tee_api.c:134
    1594:	9a03      	ldr	r2, [sp, #12]
    1596:	6833      	ldr	r3, [r6, #0]
    1598:	429a      	cmp	r2, r3
    159a:	d001      	beq.n	15a0 <TEE_CloseTASession+0x50>
    159c:	f001 fd5c 	bl	3058 <__stack_chk_fail>
    15a0:	b004      	add	sp, #16
    15a2:	bd70      	pop	{r4, r5, r6, pc}
    15a4:	00006fd6 	.word	0x00006fd6
    15a8:	0000000c 	.word	0x0000000c
    15ac:	000067f8 	.word	0x000067f8
    15b0:	0000688c 	.word	0x0000688c

000015b4 <TEE_InvokeTACommand>:
TEE_InvokeTACommand():
/home/yocto/yocto-rfpf-new/yocto-rfpf/build/tmp/work/cortexa9hf-vfp-neon-ubinux-linux-gnueabi/optee-os/2.0.0+gitAUTOINC+ca6737b41c-r0/git/lib/libutee/tee_api.c:140
    15b4:	e92d 47f0 	stmdb	sp!, {r4, r5, r6, r7, r8, r9, sl, lr}
    15b8:	4692      	mov	sl, r2
    15ba:	4a24      	ldr	r2, [pc, #144]	; (164c <TEE_InvokeTACommand+0x98>)
    15bc:	4689      	mov	r9, r1
    15be:	b098      	sub	sp, #96	; 0x60
    15c0:	4923      	ldr	r1, [pc, #140]	; (1650 <TEE_InvokeTACommand+0x9c>)
/home/yocto/yocto-rfpf-new/yocto-rfpf/build/tmp/work/cortexa9hf-vfp-neon-ubinux-linux-gnueabi/optee-os/2.0.0+gitAUTOINC+ca6737b41c-r0/git/lib/libutee/tee_api.c:145
    15c2:	ad04      	add	r5, sp, #16
/home/yocto/yocto-rfpf-new/yocto-rfpf/build/tmp/work/cortexa9hf-vfp-neon-ubinux-linux-gnueabi/optee-os/2.0.0+gitAUTOINC+ca6737b41c-r0/git/lib/libutee/tee_api.c:140
    15c4:	4604      	mov	r4, r0
    15c6:	f8dd 8080 	ldr.w	r8, [sp, #128]	; 0x80
/home/yocto/yocto-rfpf-new/yocto-rfpf/build/tmp/work/cortexa9hf-vfp-neon-ubinux-linux-gnueabi/optee-os/2.0.0+gitAUTOINC+ca6737b41c-r0/git/lib/libutee/tee_api.c:145
    15ca:	4628      	mov	r0, r5
/home/yocto/yocto-rfpf-new/yocto-rfpf/build/tmp/work/cortexa9hf-vfp-neon-ubinux-linux-gnueabi/optee-os/2.0.0+gitAUTOINC+ca6737b41c-r0/git/lib/libutee/tee_api.c:140
    15cc:	9e21      	ldr	r6, [sp, #132]	; 0x84
    15ce:	447a      	add	r2, pc
    15d0:	5857      	ldr	r7, [r2, r1]
/home/yocto/yocto-rfpf-new/yocto-rfpf/build/tmp/work/cortexa9hf-vfp-neon-ubinux-linux-gnueabi/optee-os/2.0.0+gitAUTOINC+ca6737b41c-r0/git/lib/libutee/tee_api.c:145
    15d2:	4619      	mov	r1, r3
/home/yocto/yocto-rfpf-new/yocto-rfpf/build/tmp/work/cortexa9hf-vfp-neon-ubinux-linux-gnueabi/optee-os/2.0.0+gitAUTOINC+ca6737b41c-r0/git/lib/libutee/tee_api.c:140
    15d4:	683a      	ldr	r2, [r7, #0]
    15d6:	9217      	str	r2, [sp, #92]	; 0x5c
/home/yocto/yocto-rfpf-new/yocto-rfpf/build/tmp/work/cortexa9hf-vfp-neon-ubinux-linux-gnueabi/optee-os/2.0.0+gitAUTOINC+ca6737b41c-r0/git/lib/libutee/tee_api.c:145
    15d8:	4642      	mov	r2, r8
    15da:	f7ff ff0d 	bl	13f8 <__utee_from_param>
/home/yocto/yocto-rfpf-new/yocto-rfpf/build/tmp/work/cortexa9hf-vfp-neon-ubinux-linux-gnueabi/optee-os/2.0.0+gitAUTOINC+ca6737b41c-r0/git/lib/libutee/tee_api.c:146
    15de:	ab03      	add	r3, sp, #12
    15e0:	4652      	mov	r2, sl
    15e2:	4649      	mov	r1, r9
    15e4:	4620      	mov	r0, r4
    15e6:	9300      	str	r3, [sp, #0]
    15e8:	462b      	mov	r3, r5
    15ea:	f7fe efa4 	blx	534 <utee_invoke_ta_command>
    15ee:	4604      	mov	r4, r0
/home/yocto/yocto-rfpf-new/yocto-rfpf/build/tmp/work/cortexa9hf-vfp-neon-ubinux-linux-gnueabi/optee-os/2.0.0+gitAUTOINC+ca6737b41c-r0/git/lib/libutee/tee_api.c:149
    15f0:	462a      	mov	r2, r5
    15f2:	2100      	movs	r1, #0
    15f4:	4640      	mov	r0, r8
    15f6:	f7ff ff3d 	bl	1474 <__utee_to_param>
    15fa:	9b03      	ldr	r3, [sp, #12]
/home/yocto/yocto-rfpf-new/yocto-rfpf/build/tmp/work/cortexa9hf-vfp-neon-ubinux-linux-gnueabi/optee-os/2.0.0+gitAUTOINC+ca6737b41c-r0/git/lib/libutee/tee_api.c:151
    15fc:	b106      	cbz	r6, 1600 <TEE_InvokeTACommand+0x4c>
/home/yocto/yocto-rfpf-new/yocto-rfpf/build/tmp/work/cortexa9hf-vfp-neon-ubinux-linux-gnueabi/optee-os/2.0.0+gitAUTOINC+ca6737b41c-r0/git/lib/libutee/tee_api.c:152
    15fe:	6033      	str	r3, [r6, #0]
/home/yocto/yocto-rfpf-new/yocto-rfpf/build/tmp/work/cortexa9hf-vfp-neon-ubinux-linux-gnueabi/optee-os/2.0.0+gitAUTOINC+ca6737b41c-r0/git/lib/libutee/tee_api.c:154
    1600:	2b04      	cmp	r3, #4
    1602:	d015      	beq.n	1630 <TEE_InvokeTACommand+0x7c>
/home/yocto/yocto-rfpf-new/yocto-rfpf/build/tmp/work/cortexa9hf-vfp-neon-ubinux-linux-gnueabi/optee-os/2.0.0+gitAUTOINC+ca6737b41c-r0/git/lib/libutee/tee_api.c:157
    1604:	b1a4      	cbz	r4, 1630 <TEE_InvokeTACommand+0x7c>
/home/yocto/yocto-rfpf-new/yocto-rfpf/build/tmp/work/cortexa9hf-vfp-neon-ubinux-linux-gnueabi/optee-os/2.0.0+gitAUTOINC+ca6737b41c-r0/git/lib/libutee/tee_api.c:157 (discriminator 1)
    1606:	4b0f      	ldr	r3, [pc, #60]	; (1644 <TEE_InvokeTACommand+0x90>)
    1608:	429c      	cmp	r4, r3
    160a:	d011      	beq.n	1630 <TEE_InvokeTACommand+0x7c>
/home/yocto/yocto-rfpf-new/yocto-rfpf/build/tmp/work/cortexa9hf-vfp-neon-ubinux-linux-gnueabi/optee-os/2.0.0+gitAUTOINC+ca6737b41c-r0/git/lib/libutee/tee_api.c:158
    160c:	4b0e      	ldr	r3, [pc, #56]	; (1648 <TEE_InvokeTACommand+0x94>)
    160e:	429c      	cmp	r4, r3
    1610:	d00e      	beq.n	1630 <TEE_InvokeTACommand+0x7c>
/home/yocto/yocto-rfpf-new/yocto-rfpf/build/tmp/work/cortexa9hf-vfp-neon-ubinux-linux-gnueabi/optee-os/2.0.0+gitAUTOINC+ca6737b41c-r0/git/lib/libutee/tee_api.c:160
    1612:	4b10      	ldr	r3, [pc, #64]	; (1654 <TEE_InvokeTACommand+0xa0>)
    1614:	21a0      	movs	r1, #160	; 0xa0
    1616:	4810      	ldr	r0, [pc, #64]	; (1658 <TEE_InvokeTACommand+0xa4>)
    1618:	447b      	add	r3, pc
    161a:	4478      	add	r0, pc
    161c:	e9cd 3400 	strd	r3, r4, [sp]
    1620:	2301      	movs	r3, #1
    1622:	3013      	adds	r0, #19
    1624:	461a      	mov	r2, r3
    1626:	f002 f9f9 	bl	3a1c <trace_printf>
    162a:	4620      	mov	r0, r4
    162c:	f000 fac6 	bl	1bbc <__TEE_Panic>
/home/yocto/yocto-rfpf-new/yocto-rfpf/build/tmp/work/cortexa9hf-vfp-neon-ubinux-linux-gnueabi/optee-os/2.0.0+gitAUTOINC+ca6737b41c-r0/git/lib/libutee/tee_api.c:163
    1630:	9a17      	ldr	r2, [sp, #92]	; 0x5c
    1632:	4620      	mov	r0, r4
    1634:	683b      	ldr	r3, [r7, #0]
    1636:	429a      	cmp	r2, r3
    1638:	d001      	beq.n	163e <TEE_InvokeTACommand+0x8a>
    163a:	f001 fd0d 	bl	3058 <__stack_chk_fail>
    163e:	b018      	add	sp, #96	; 0x60
    1640:	e8bd 87f0 	ldmia.w	sp!, {r4, r5, r6, r7, r8, r9, sl, pc}
    1644:	ffff000c 	.word	0xffff000c
    1648:	ffff3024 	.word	0xffff3024
    164c:	00006f5e 	.word	0x00006f5e
    1650:	0000000c 	.word	0x0000000c
    1654:	00006750 	.word	0x00006750
    1658:	000067e4 	.word	0x000067e4

0000165c <TEE_GetCancellationFlag>:
TEE_GetCancellationFlag():
/home/yocto/yocto-rfpf-new/yocto-rfpf/build/tmp/work/cortexa9hf-vfp-neon-ubinux-linux-gnueabi/optee-os/2.0.0+gitAUTOINC+ca6737b41c-r0/git/lib/libutee/tee_api.c:168
    165c:	4b0c      	ldr	r3, [pc, #48]	; (1690 <TEE_GetCancellationFlag+0x34>)
    165e:	4a0d      	ldr	r2, [pc, #52]	; (1694 <TEE_GetCancellationFlag+0x38>)
    1660:	b513      	push	{r0, r1, r4, lr}
/home/yocto/yocto-rfpf-new/yocto-rfpf/build/tmp/work/cortexa9hf-vfp-neon-ubinux-linux-gnueabi/optee-os/2.0.0+gitAUTOINC+ca6737b41c-r0/git/lib/libutee/tee_api.c:170
    1662:	4668      	mov	r0, sp
/home/yocto/yocto-rfpf-new/yocto-rfpf/build/tmp/work/cortexa9hf-vfp-neon-ubinux-linux-gnueabi/optee-os/2.0.0+gitAUTOINC+ca6737b41c-r0/git/lib/libutee/tee_api.c:168
    1664:	447b      	add	r3, pc
    1666:	589c      	ldr	r4, [r3, r2]
    1668:	6823      	ldr	r3, [r4, #0]
    166a:	9301      	str	r3, [sp, #4]
/home/yocto/yocto-rfpf-new/yocto-rfpf/build/tmp/work/cortexa9hf-vfp-neon-ubinux-linux-gnueabi/optee-os/2.0.0+gitAUTOINC+ca6737b41c-r0/git/lib/libutee/tee_api.c:170
    166c:	f7fe ef6e 	blx	54c <utee_get_cancellation_flag>
/home/yocto/yocto-rfpf-new/yocto-rfpf/build/tmp/work/cortexa9hf-vfp-neon-ubinux-linux-gnueabi/optee-os/2.0.0+gitAUTOINC+ca6737b41c-r0/git/lib/libutee/tee_api.c:172
    1670:	b108      	cbz	r0, 1676 <TEE_GetCancellationFlag+0x1a>
/home/yocto/yocto-rfpf-new/yocto-rfpf/build/tmp/work/cortexa9hf-vfp-neon-ubinux-linux-gnueabi/optee-os/2.0.0+gitAUTOINC+ca6737b41c-r0/git/lib/libutee/tee_api.c:173
    1672:	2300      	movs	r3, #0
    1674:	9300      	str	r3, [sp, #0]
/home/yocto/yocto-rfpf-new/yocto-rfpf/build/tmp/work/cortexa9hf-vfp-neon-ubinux-linux-gnueabi/optee-os/2.0.0+gitAUTOINC+ca6737b41c-r0/git/lib/libutee/tee_api.c:175
    1676:	9800      	ldr	r0, [sp, #0]
    1678:	9a01      	ldr	r2, [sp, #4]
    167a:	6823      	ldr	r3, [r4, #0]
    167c:	3000      	adds	r0, #0
    167e:	bf18      	it	ne
    1680:	2001      	movne	r0, #1
    1682:	429a      	cmp	r2, r3
    1684:	d001      	beq.n	168a <TEE_GetCancellationFlag+0x2e>
    1686:	f001 fce7 	bl	3058 <__stack_chk_fail>
    168a:	b002      	add	sp, #8
    168c:	bd10      	pop	{r4, pc}
    168e:	bf00      	nop
    1690:	00006ec8 	.word	0x00006ec8
    1694:	0000000c 	.word	0x0000000c

00001698 <TEE_UnmaskCancellation>:
TEE_UnmaskCancellation():
/home/yocto/yocto-rfpf-new/yocto-rfpf/build/tmp/work/cortexa9hf-vfp-neon-ubinux-linux-gnueabi/optee-os/2.0.0+gitAUTOINC+ca6737b41c-r0/git/lib/libutee/tee_api.c:178
    1698:	4b13      	ldr	r3, [pc, #76]	; (16e8 <TEE_UnmaskCancellation+0x50>)
    169a:	4a14      	ldr	r2, [pc, #80]	; (16ec <TEE_UnmaskCancellation+0x54>)
    169c:	b530      	push	{r4, r5, lr}
    169e:	b085      	sub	sp, #20
/home/yocto/yocto-rfpf-new/yocto-rfpf/build/tmp/work/cortexa9hf-vfp-neon-ubinux-linux-gnueabi/optee-os/2.0.0+gitAUTOINC+ca6737b41c-r0/git/lib/libutee/tee_api.c:180
    16a0:	a802      	add	r0, sp, #8
/home/yocto/yocto-rfpf-new/yocto-rfpf/build/tmp/work/cortexa9hf-vfp-neon-ubinux-linux-gnueabi/optee-os/2.0.0+gitAUTOINC+ca6737b41c-r0/git/lib/libutee/tee_api.c:178
    16a2:	447b      	add	r3, pc
    16a4:	589c      	ldr	r4, [r3, r2]
    16a6:	6823      	ldr	r3, [r4, #0]
    16a8:	9303      	str	r3, [sp, #12]
/home/yocto/yocto-rfpf-new/yocto-rfpf/build/tmp/work/cortexa9hf-vfp-neon-ubinux-linux-gnueabi/optee-os/2.0.0+gitAUTOINC+ca6737b41c-r0/git/lib/libutee/tee_api.c:180
    16aa:	f7fe ef64 	blx	574 <utee_unmask_cancellation>
/home/yocto/yocto-rfpf-new/yocto-rfpf/build/tmp/work/cortexa9hf-vfp-neon-ubinux-linux-gnueabi/optee-os/2.0.0+gitAUTOINC+ca6737b41c-r0/git/lib/libutee/tee_api.c:182
    16ae:	4605      	mov	r5, r0
    16b0:	b170      	cbz	r0, 16d0 <TEE_UnmaskCancellation+0x38>
/home/yocto/yocto-rfpf-new/yocto-rfpf/build/tmp/work/cortexa9hf-vfp-neon-ubinux-linux-gnueabi/optee-os/2.0.0+gitAUTOINC+ca6737b41c-r0/git/lib/libutee/tee_api.c:183
    16b2:	4b0f      	ldr	r3, [pc, #60]	; (16f0 <TEE_UnmaskCancellation+0x58>)
    16b4:	21b7      	movs	r1, #183	; 0xb7
    16b6:	480f      	ldr	r0, [pc, #60]	; (16f4 <TEE_UnmaskCancellation+0x5c>)
    16b8:	447b      	add	r3, pc
    16ba:	4478      	add	r0, pc
    16bc:	e9cd 3500 	strd	r3, r5, [sp]
    16c0:	2301      	movs	r3, #1
    16c2:	3027      	adds	r0, #39	; 0x27
    16c4:	461a      	mov	r2, r3
    16c6:	f002 f9a9 	bl	3a1c <trace_printf>
    16ca:	4628      	mov	r0, r5
    16cc:	f000 fa76 	bl	1bbc <__TEE_Panic>
/home/yocto/yocto-rfpf-new/yocto-rfpf/build/tmp/work/cortexa9hf-vfp-neon-ubinux-linux-gnueabi/optee-os/2.0.0+gitAUTOINC+ca6737b41c-r0/git/lib/libutee/tee_api.c:185
    16d0:	9802      	ldr	r0, [sp, #8]
    16d2:	9a03      	ldr	r2, [sp, #12]
    16d4:	6823      	ldr	r3, [r4, #0]
    16d6:	3000      	adds	r0, #0
    16d8:	bf18      	it	ne
    16da:	2001      	movne	r0, #1
    16dc:	429a      	cmp	r2, r3
    16de:	d001      	beq.n	16e4 <TEE_UnmaskCancellation+0x4c>
    16e0:	f001 fcba 	bl	3058 <__stack_chk_fail>
    16e4:	b005      	add	sp, #20
    16e6:	bd30      	pop	{r4, r5, pc}
    16e8:	00006e8a 	.word	0x00006e8a
    16ec:	0000000c 	.word	0x0000000c
    16f0:	000066b0 	.word	0x000066b0
    16f4:	00006744 	.word	0x00006744

000016f8 <TEE_MaskCancellation>:
TEE_MaskCancellation():
/home/yocto/yocto-rfpf-new/yocto-rfpf/build/tmp/work/cortexa9hf-vfp-neon-ubinux-linux-gnueabi/optee-os/2.0.0+gitAUTOINC+ca6737b41c-r0/git/lib/libutee/tee_api.c:188
    16f8:	4b13      	ldr	r3, [pc, #76]	; (1748 <TEE_MaskCancellation+0x50>)
    16fa:	4a14      	ldr	r2, [pc, #80]	; (174c <TEE_MaskCancellation+0x54>)
    16fc:	b530      	push	{r4, r5, lr}
    16fe:	b085      	sub	sp, #20
/home/yocto/yocto-rfpf-new/yocto-rfpf/build/tmp/work/cortexa9hf-vfp-neon-ubinux-linux-gnueabi/optee-os/2.0.0+gitAUTOINC+ca6737b41c-r0/git/lib/libutee/tee_api.c:190
    1700:	a802      	add	r0, sp, #8
/home/yocto/yocto-rfpf-new/yocto-rfpf/build/tmp/work/cortexa9hf-vfp-neon-ubinux-linux-gnueabi/optee-os/2.0.0+gitAUTOINC+ca6737b41c-r0/git/lib/libutee/tee_api.c:188
    1702:	447b      	add	r3, pc
    1704:	589c      	ldr	r4, [r3, r2]
    1706:	6823      	ldr	r3, [r4, #0]
    1708:	9303      	str	r3, [sp, #12]
/home/yocto/yocto-rfpf-new/yocto-rfpf/build/tmp/work/cortexa9hf-vfp-neon-ubinux-linux-gnueabi/optee-os/2.0.0+gitAUTOINC+ca6737b41c-r0/git/lib/libutee/tee_api.c:190
    170a:	f7fe ef3e 	blx	588 <utee_mask_cancellation>
/home/yocto/yocto-rfpf-new/yocto-rfpf/build/tmp/work/cortexa9hf-vfp-neon-ubinux-linux-gnueabi/optee-os/2.0.0+gitAUTOINC+ca6737b41c-r0/git/lib/libutee/tee_api.c:192
    170e:	4605      	mov	r5, r0
    1710:	b170      	cbz	r0, 1730 <TEE_MaskCancellation+0x38>
/home/yocto/yocto-rfpf-new/yocto-rfpf/build/tmp/work/cortexa9hf-vfp-neon-ubinux-linux-gnueabi/optee-os/2.0.0+gitAUTOINC+ca6737b41c-r0/git/lib/libutee/tee_api.c:193
    1712:	4b0f      	ldr	r3, [pc, #60]	; (1750 <TEE_MaskCancellation+0x58>)
    1714:	21c1      	movs	r1, #193	; 0xc1
    1716:	480f      	ldr	r0, [pc, #60]	; (1754 <TEE_MaskCancellation+0x5c>)
    1718:	447b      	add	r3, pc
    171a:	4478      	add	r0, pc
    171c:	e9cd 3500 	strd	r3, r5, [sp]
    1720:	2301      	movs	r3, #1
    1722:	303e      	adds	r0, #62	; 0x3e
    1724:	461a      	mov	r2, r3
    1726:	f002 f979 	bl	3a1c <trace_printf>
    172a:	4628      	mov	r0, r5
    172c:	f000 fa46 	bl	1bbc <__TEE_Panic>
/home/yocto/yocto-rfpf-new/yocto-rfpf/build/tmp/work/cortexa9hf-vfp-neon-ubinux-linux-gnueabi/optee-os/2.0.0+gitAUTOINC+ca6737b41c-r0/git/lib/libutee/tee_api.c:195
    1730:	9802      	ldr	r0, [sp, #8]
    1732:	9a03      	ldr	r2, [sp, #12]
    1734:	6823      	ldr	r3, [r4, #0]
    1736:	3000      	adds	r0, #0
    1738:	bf18      	it	ne
    173a:	2001      	movne	r0, #1
    173c:	429a      	cmp	r2, r3
    173e:	d001      	beq.n	1744 <TEE_MaskCancellation+0x4c>
    1740:	f001 fc8a 	bl	3058 <__stack_chk_fail>
    1744:	b005      	add	sp, #20
    1746:	bd30      	pop	{r4, r5, pc}
    1748:	00006e2a 	.word	0x00006e2a
    174c:	0000000c 	.word	0x0000000c
    1750:	00006650 	.word	0x00006650
    1754:	000066e4 	.word	0x000066e4

00001758 <TEE_CheckMemoryAccessRights>:
TEE_CheckMemoryAccessRights():
/home/yocto/yocto-rfpf-new/yocto-rfpf/build/tmp/work/cortexa9hf-vfp-neon-ubinux-linux-gnueabi/optee-os/2.0.0+gitAUTOINC+ca6737b41c-r0/git/lib/libutee/tee_api.c:201
    1758:	4b0c      	ldr	r3, [pc, #48]	; (178c <TEE_CheckMemoryAccessRights+0x34>)
    175a:	b513      	push	{r0, r1, r4, lr}
    175c:	4c0c      	ldr	r4, [pc, #48]	; (1790 <TEE_CheckMemoryAccessRights+0x38>)
    175e:	447b      	add	r3, pc
    1760:	591b      	ldr	r3, [r3, r4]
    1762:	681c      	ldr	r4, [r3, #0]
    1764:	9401      	str	r4, [sp, #4]
/home/yocto/yocto-rfpf-new/yocto-rfpf/build/tmp/work/cortexa9hf-vfp-neon-ubinux-linux-gnueabi/optee-os/2.0.0+gitAUTOINC+ca6737b41c-r0/git/lib/libutee/tee_api.c:204
    1766:	b142      	cbz	r2, 177a <TEE_CheckMemoryAccessRights+0x22>
/home/yocto/yocto-rfpf-new/yocto-rfpf/build/tmp/work/cortexa9hf-vfp-neon-ubinux-linux-gnueabi/optee-os/2.0.0+gitAUTOINC+ca6737b41c-r0/git/lib/libutee/tee_api.c:208
    1768:	9c01      	ldr	r4, [sp, #4]
    176a:	681b      	ldr	r3, [r3, #0]
    176c:	429c      	cmp	r4, r3
    176e:	d109      	bne.n	1784 <TEE_CheckMemoryAccessRights+0x2c>
/home/yocto/yocto-rfpf-new/yocto-rfpf/build/tmp/work/cortexa9hf-vfp-neon-ubinux-linux-gnueabi/optee-os/2.0.0+gitAUTOINC+ca6737b41c-r0/git/lib/libutee/tee_api.c:220
    1770:	b002      	add	sp, #8
    1772:	e8bd 4010 	ldmia.w	sp!, {r4, lr}
/home/yocto/yocto-rfpf-new/yocto-rfpf/build/tmp/work/cortexa9hf-vfp-neon-ubinux-linux-gnueabi/optee-os/2.0.0+gitAUTOINC+ca6737b41c-r0/git/lib/libutee/tee_api.c:208
    1776:	f005 bb4b 	b.w	6e10 <__utee_check_access_rights_from_thumb>
/home/yocto/yocto-rfpf-new/yocto-rfpf/build/tmp/work/cortexa9hf-vfp-neon-ubinux-linux-gnueabi/optee-os/2.0.0+gitAUTOINC+ca6737b41c-r0/git/lib/libutee/tee_api.c:220
    177a:	4610      	mov	r0, r2
    177c:	9a01      	ldr	r2, [sp, #4]
    177e:	681b      	ldr	r3, [r3, #0]
    1780:	429a      	cmp	r2, r3
    1782:	d001      	beq.n	1788 <TEE_CheckMemoryAccessRights+0x30>
    1784:	f001 fc68 	bl	3058 <__stack_chk_fail>
    1788:	b002      	add	sp, #8
    178a:	bd10      	pop	{r4, pc}
    178c:	00006dce 	.word	0x00006dce
    1790:	0000000c 	.word	0x0000000c

00001794 <TEE_SetInstanceData>:
TEE_SetInstanceData():
/home/yocto/yocto-rfpf-new/yocto-rfpf/build/tmp/work/cortexa9hf-vfp-neon-ubinux-linux-gnueabi/optee-os/2.0.0+gitAUTOINC+ca6737b41c-r0/git/lib/libutee/tee_api.c:223
    1794:	4b09      	ldr	r3, [pc, #36]	; (17bc <TEE_SetInstanceData+0x28>)
    1796:	b507      	push	{r0, r1, r2, lr}
    1798:	4a09      	ldr	r2, [pc, #36]	; (17c0 <TEE_SetInstanceData+0x2c>)
    179a:	447b      	add	r3, pc
    179c:	589b      	ldr	r3, [r3, r2]
    179e:	681a      	ldr	r2, [r3, #0]
    17a0:	9201      	str	r2, [sp, #4]
/home/yocto/yocto-rfpf-new/yocto-rfpf/build/tmp/work/cortexa9hf-vfp-neon-ubinux-linux-gnueabi/optee-os/2.0.0+gitAUTOINC+ca6737b41c-r0/git/lib/libutee/tee_api.c:224
    17a2:	4a08      	ldr	r2, [pc, #32]	; (17c4 <TEE_SetInstanceData+0x30>)
    17a4:	447a      	add	r2, pc
    17a6:	6010      	str	r0, [r2, #0]
/home/yocto/yocto-rfpf-new/yocto-rfpf/build/tmp/work/cortexa9hf-vfp-neon-ubinux-linux-gnueabi/optee-os/2.0.0+gitAUTOINC+ca6737b41c-r0/git/lib/libutee/tee_api.c:225
    17a8:	9a01      	ldr	r2, [sp, #4]
    17aa:	681b      	ldr	r3, [r3, #0]
    17ac:	429a      	cmp	r2, r3
    17ae:	d001      	beq.n	17b4 <TEE_SetInstanceData+0x20>
    17b0:	f001 fc52 	bl	3058 <__stack_chk_fail>
    17b4:	b003      	add	sp, #12
    17b6:	f85d fb04 	ldr.w	pc, [sp], #4
    17ba:	bf00      	nop
    17bc:	00006d92 	.word	0x00006d92
    17c0:	0000000c 	.word	0x0000000c
    17c4:	00009418 	.word	0x00009418

000017c8 <TEE_GetInstanceData>:
TEE_GetInstanceData():
/home/yocto/yocto-rfpf-new/yocto-rfpf/build/tmp/work/cortexa9hf-vfp-neon-ubinux-linux-gnueabi/optee-os/2.0.0+gitAUTOINC+ca6737b41c-r0/git/lib/libutee/tee_api.c:228
    17c8:	4b09      	ldr	r3, [pc, #36]	; (17f0 <TEE_GetInstanceData+0x28>)
    17ca:	b507      	push	{r0, r1, r2, lr}
    17cc:	4a09      	ldr	r2, [pc, #36]	; (17f4 <TEE_GetInstanceData+0x2c>)
    17ce:	447b      	add	r3, pc
    17d0:	589b      	ldr	r3, [r3, r2]
    17d2:	681a      	ldr	r2, [r3, #0]
    17d4:	9201      	str	r2, [sp, #4]
/home/yocto/yocto-rfpf-new/yocto-rfpf/build/tmp/work/cortexa9hf-vfp-neon-ubinux-linux-gnueabi/optee-os/2.0.0+gitAUTOINC+ca6737b41c-r0/git/lib/libutee/tee_api.c:230
    17d6:	4a08      	ldr	r2, [pc, #32]	; (17f8 <TEE_GetInstanceData+0x30>)
    17d8:	447a      	add	r2, pc
    17da:	6810      	ldr	r0, [r2, #0]
    17dc:	9a01      	ldr	r2, [sp, #4]
    17de:	681b      	ldr	r3, [r3, #0]
    17e0:	429a      	cmp	r2, r3
    17e2:	d001      	beq.n	17e8 <TEE_GetInstanceData+0x20>
    17e4:	f001 fc38 	bl	3058 <__stack_chk_fail>
    17e8:	b003      	add	sp, #12
    17ea:	f85d fb04 	ldr.w	pc, [sp], #4
    17ee:	bf00      	nop
    17f0:	00006d5e 	.word	0x00006d5e
    17f4:	0000000c 	.word	0x0000000c
    17f8:	000093e4 	.word	0x000093e4

000017fc <TEE_MemMove>:
TEE_MemMove():
/home/yocto/yocto-rfpf-new/yocto-rfpf/build/tmp/work/cortexa9hf-vfp-neon-ubinux-linux-gnueabi/optee-os/2.0.0+gitAUTOINC+ca6737b41c-r0/git/lib/libutee/tee_api.c:233
    17fc:	4b08      	ldr	r3, [pc, #32]	; (1820 <TEE_MemMove+0x24>)
    17fe:	b513      	push	{r0, r1, r4, lr}
    1800:	4c08      	ldr	r4, [pc, #32]	; (1824 <TEE_MemMove+0x28>)
    1802:	447b      	add	r3, pc
    1804:	591b      	ldr	r3, [r3, r4]
    1806:	681c      	ldr	r4, [r3, #0]
    1808:	9401      	str	r4, [sp, #4]
/home/yocto/yocto-rfpf-new/yocto-rfpf/build/tmp/work/cortexa9hf-vfp-neon-ubinux-linux-gnueabi/optee-os/2.0.0+gitAUTOINC+ca6737b41c-r0/git/lib/libutee/tee_api.c:234
    180a:	9c01      	ldr	r4, [sp, #4]
    180c:	681b      	ldr	r3, [r3, #0]
    180e:	429c      	cmp	r4, r3
    1810:	d001      	beq.n	1816 <TEE_MemMove+0x1a>
    1812:	f001 fc21 	bl	3058 <__stack_chk_fail>
/home/yocto/yocto-rfpf-new/yocto-rfpf/build/tmp/work/cortexa9hf-vfp-neon-ubinux-linux-gnueabi/optee-os/2.0.0+gitAUTOINC+ca6737b41c-r0/git/lib/libutee/tee_api.c:235
    1816:	b002      	add	sp, #8
    1818:	e8bd 4010 	ldmia.w	sp!, {r4, lr}
/home/yocto/yocto-rfpf-new/yocto-rfpf/build/tmp/work/cortexa9hf-vfp-neon-ubinux-linux-gnueabi/optee-os/2.0.0+gitAUTOINC+ca6737b41c-r0/git/lib/libutee/tee_api.c:234
    181c:	f001 bc66 	b.w	30ec <memmove>
    1820:	00006d2a 	.word	0x00006d2a
    1824:	0000000c 	.word	0x0000000c

00001828 <TEE_MemCompare>:
TEE_MemCompare():
/home/yocto/yocto-rfpf-new/yocto-rfpf/build/tmp/work/cortexa9hf-vfp-neon-ubinux-linux-gnueabi/optee-os/2.0.0+gitAUTOINC+ca6737b41c-r0/git/lib/libutee/tee_api.c:238
    1828:	4b08      	ldr	r3, [pc, #32]	; (184c <TEE_MemCompare+0x24>)
    182a:	b513      	push	{r0, r1, r4, lr}
    182c:	4c08      	ldr	r4, [pc, #32]	; (1850 <TEE_MemCompare+0x28>)
    182e:	447b      	add	r3, pc
    1830:	591b      	ldr	r3, [r3, r4]
    1832:	681c      	ldr	r4, [r3, #0]
    1834:	9401      	str	r4, [sp, #4]
/home/yocto/yocto-rfpf-new/yocto-rfpf/build/tmp/work/cortexa9hf-vfp-neon-ubinux-linux-gnueabi/optee-os/2.0.0+gitAUTOINC+ca6737b41c-r0/git/lib/libutee/tee_api.c:239
    1836:	9c01      	ldr	r4, [sp, #4]
    1838:	681b      	ldr	r3, [r3, #0]
    183a:	429c      	cmp	r4, r3
    183c:	d001      	beq.n	1842 <TEE_MemCompare+0x1a>
    183e:	f001 fc0b 	bl	3058 <__stack_chk_fail>
/home/yocto/yocto-rfpf-new/yocto-rfpf/build/tmp/work/cortexa9hf-vfp-neon-ubinux-linux-gnueabi/optee-os/2.0.0+gitAUTOINC+ca6737b41c-r0/git/lib/libutee/tee_api.c:240
    1842:	b002      	add	sp, #8
    1844:	e8bd 4010 	ldmia.w	sp!, {r4, lr}
/home/yocto/yocto-rfpf-new/yocto-rfpf/build/tmp/work/cortexa9hf-vfp-neon-ubinux-linux-gnueabi/optee-os/2.0.0+gitAUTOINC+ca6737b41c-r0/git/lib/libutee/tee_api.c:239
    1848:	f001 bc12 	b.w	3070 <memcmp>
    184c:	00006cfe 	.word	0x00006cfe
    1850:	0000000c 	.word	0x0000000c

00001854 <TEE_MemFill>:
TEE_MemFill():
/home/yocto/yocto-rfpf-new/yocto-rfpf/build/tmp/work/cortexa9hf-vfp-neon-ubinux-linux-gnueabi/optee-os/2.0.0+gitAUTOINC+ca6737b41c-r0/git/lib/libutee/tee_api.c:243
    1854:	4b08      	ldr	r3, [pc, #32]	; (1878 <TEE_MemFill+0x24>)
    1856:	b513      	push	{r0, r1, r4, lr}
    1858:	4c08      	ldr	r4, [pc, #32]	; (187c <TEE_MemFill+0x28>)
    185a:	447b      	add	r3, pc
    185c:	591b      	ldr	r3, [r3, r4]
    185e:	681c      	ldr	r4, [r3, #0]
    1860:	9401      	str	r4, [sp, #4]
/home/yocto/yocto-rfpf-new/yocto-rfpf/build/tmp/work/cortexa9hf-vfp-neon-ubinux-linux-gnueabi/optee-os/2.0.0+gitAUTOINC+ca6737b41c-r0/git/lib/libutee/tee_api.c:244
    1862:	9c01      	ldr	r4, [sp, #4]
    1864:	681b      	ldr	r3, [r3, #0]
    1866:	429c      	cmp	r4, r3
    1868:	d001      	beq.n	186e <TEE_MemFill+0x1a>
    186a:	f001 fbf5 	bl	3058 <__stack_chk_fail>
/home/yocto/yocto-rfpf-new/yocto-rfpf/build/tmp/work/cortexa9hf-vfp-neon-ubinux-linux-gnueabi/optee-os/2.0.0+gitAUTOINC+ca6737b41c-r0/git/lib/libutee/tee_api.c:245
    186e:	b002      	add	sp, #8
    1870:	e8bd 4010 	ldmia.w	sp!, {r4, lr}
/home/yocto/yocto-rfpf-new/yocto-rfpf/build/tmp/work/cortexa9hf-vfp-neon-ubinux-linux-gnueabi/optee-os/2.0.0+gitAUTOINC+ca6737b41c-r0/git/lib/libutee/tee_api.c:244
    1874:	f001 bc66 	b.w	3144 <memset>
    1878:	00006cd2 	.word	0x00006cd2
    187c:	0000000c 	.word	0x0000000c

00001880 <TEE_GetSystemTime>:
TEE_GetSystemTime():
/home/yocto/yocto-rfpf-new/yocto-rfpf/build/tmp/work/cortexa9hf-vfp-neon-ubinux-linux-gnueabi/optee-os/2.0.0+gitAUTOINC+ca6737b41c-r0/git/lib/libutee/tee_api.c:250
    1880:	4b15      	ldr	r3, [pc, #84]	; (18d8 <TEE_GetSystemTime+0x58>)
/home/yocto/yocto-rfpf-new/yocto-rfpf/build/tmp/work/cortexa9hf-vfp-neon-ubinux-linux-gnueabi/optee-os/2.0.0+gitAUTOINC+ca6737b41c-r0/git/lib/libutee/tee_api.c:251
    1882:	4601      	mov	r1, r0
    1884:	2000      	movs	r0, #0
/home/yocto/yocto-rfpf-new/yocto-rfpf/build/tmp/work/cortexa9hf-vfp-neon-ubinux-linux-gnueabi/optee-os/2.0.0+gitAUTOINC+ca6737b41c-r0/git/lib/libutee/tee_api.c:250
    1886:	4a15      	ldr	r2, [pc, #84]	; (18dc <TEE_GetSystemTime+0x5c>)
    1888:	b530      	push	{r4, r5, lr}
    188a:	b085      	sub	sp, #20
    188c:	447b      	add	r3, pc
    188e:	589c      	ldr	r4, [r3, r2]
    1890:	6823      	ldr	r3, [r4, #0]
    1892:	9303      	str	r3, [sp, #12]
/home/yocto/yocto-rfpf-new/yocto-rfpf/build/tmp/work/cortexa9hf-vfp-neon-ubinux-linux-gnueabi/optee-os/2.0.0+gitAUTOINC+ca6737b41c-r0/git/lib/libutee/tee_api.c:251
    1894:	f7fe ee8c 	blx	5b0 <utee_get_time>
/home/yocto/yocto-rfpf-new/yocto-rfpf/build/tmp/work/cortexa9hf-vfp-neon-ubinux-linux-gnueabi/optee-os/2.0.0+gitAUTOINC+ca6737b41c-r0/git/lib/libutee/tee_api.c:253
    1898:	b1b0      	cbz	r0, 18c8 <TEE_GetSystemTime+0x48>
/home/yocto/yocto-rfpf-new/yocto-rfpf/build/tmp/work/cortexa9hf-vfp-neon-ubinux-linux-gnueabi/optee-os/2.0.0+gitAUTOINC+ca6737b41c-r0/git/lib/libutee/tee_api.c:254
    189a:	4b11      	ldr	r3, [pc, #68]	; (18e0 <TEE_GetSystemTime+0x60>)
    189c:	2500      	movs	r5, #0
    189e:	21fe      	movs	r1, #254	; 0xfe
    18a0:	4810      	ldr	r0, [pc, #64]	; (18e4 <TEE_GetSystemTime+0x64>)
    18a2:	447b      	add	r3, pc
    18a4:	4478      	add	r0, pc
    18a6:	e9cd 3500 	strd	r3, r5, [sp]
    18aa:	2301      	movs	r3, #1
    18ac:	3053      	adds	r0, #83	; 0x53
    18ae:	461a      	mov	r2, r3
    18b0:	f002 f8b4 	bl	3a1c <trace_printf>
    18b4:	9a03      	ldr	r2, [sp, #12]
    18b6:	6823      	ldr	r3, [r4, #0]
    18b8:	429a      	cmp	r2, r3
    18ba:	d109      	bne.n	18d0 <TEE_GetSystemTime+0x50>
    18bc:	4628      	mov	r0, r5
/home/yocto/yocto-rfpf-new/yocto-rfpf/build/tmp/work/cortexa9hf-vfp-neon-ubinux-linux-gnueabi/optee-os/2.0.0+gitAUTOINC+ca6737b41c-r0/git/lib/libutee/tee_api.c:255
    18be:	b005      	add	sp, #20
    18c0:	e8bd 4030 	ldmia.w	sp!, {r4, r5, lr}
/home/yocto/yocto-rfpf-new/yocto-rfpf/build/tmp/work/cortexa9hf-vfp-neon-ubinux-linux-gnueabi/optee-os/2.0.0+gitAUTOINC+ca6737b41c-r0/git/lib/libutee/tee_api.c:254
    18c4:	f000 b97a 	b.w	1bbc <__TEE_Panic>
/home/yocto/yocto-rfpf-new/yocto-rfpf/build/tmp/work/cortexa9hf-vfp-neon-ubinux-linux-gnueabi/optee-os/2.0.0+gitAUTOINC+ca6737b41c-r0/git/lib/libutee/tee_api.c:255
    18c8:	9a03      	ldr	r2, [sp, #12]
    18ca:	6823      	ldr	r3, [r4, #0]
    18cc:	429a      	cmp	r2, r3
    18ce:	d001      	beq.n	18d4 <TEE_GetSystemTime+0x54>
    18d0:	f001 fbc2 	bl	3058 <__stack_chk_fail>
    18d4:	b005      	add	sp, #20
    18d6:	bd30      	pop	{r4, r5, pc}
    18d8:	00006ca0 	.word	0x00006ca0
    18dc:	0000000c 	.word	0x0000000c
    18e0:	000064c6 	.word	0x000064c6
    18e4:	0000655a 	.word	0x0000655a

000018e8 <TEE_Wait>:
TEE_Wait():
/home/yocto/yocto-rfpf-new/yocto-rfpf/build/tmp/work/cortexa9hf-vfp-neon-ubinux-linux-gnueabi/optee-os/2.0.0+gitAUTOINC+ca6737b41c-r0/git/lib/libutee/tee_api.c:258
    18e8:	4b14      	ldr	r3, [pc, #80]	; (193c <TEE_Wait+0x54>)
    18ea:	4a15      	ldr	r2, [pc, #84]	; (1940 <TEE_Wait+0x58>)
    18ec:	b530      	push	{r4, r5, lr}
    18ee:	b085      	sub	sp, #20
    18f0:	447b      	add	r3, pc
    18f2:	589d      	ldr	r5, [r3, r2]
    18f4:	682b      	ldr	r3, [r5, #0]
    18f6:	9303      	str	r3, [sp, #12]
/home/yocto/yocto-rfpf-new/yocto-rfpf/build/tmp/work/cortexa9hf-vfp-neon-ubinux-linux-gnueabi/optee-os/2.0.0+gitAUTOINC+ca6737b41c-r0/git/lib/libutee/tee_api.c:259
    18f8:	f7fe ee50 	blx	59c <utee_wait>
/home/yocto/yocto-rfpf-new/yocto-rfpf/build/tmp/work/cortexa9hf-vfp-neon-ubinux-linux-gnueabi/optee-os/2.0.0+gitAUTOINC+ca6737b41c-r0/git/lib/libutee/tee_api.c:261
    18fc:	4604      	mov	r4, r0
    18fe:	b190      	cbz	r0, 1926 <TEE_Wait+0x3e>
/home/yocto/yocto-rfpf-new/yocto-rfpf/build/tmp/work/cortexa9hf-vfp-neon-ubinux-linux-gnueabi/optee-os/2.0.0+gitAUTOINC+ca6737b41c-r0/git/lib/libutee/tee_api.c:261 (discriminator 1)
    1900:	4b0d      	ldr	r3, [pc, #52]	; (1938 <TEE_Wait+0x50>)
    1902:	4298      	cmp	r0, r3
    1904:	d00f      	beq.n	1926 <TEE_Wait+0x3e>
/home/yocto/yocto-rfpf-new/yocto-rfpf/build/tmp/work/cortexa9hf-vfp-neon-ubinux-linux-gnueabi/optee-os/2.0.0+gitAUTOINC+ca6737b41c-r0/git/lib/libutee/tee_api.c:262
    1906:	4b0f      	ldr	r3, [pc, #60]	; (1944 <TEE_Wait+0x5c>)
    1908:	f44f 7183 	mov.w	r1, #262	; 0x106
    190c:	480e      	ldr	r0, [pc, #56]	; (1948 <TEE_Wait+0x60>)
    190e:	447b      	add	r3, pc
    1910:	4478      	add	r0, pc
    1912:	e9cd 3400 	strd	r3, r4, [sp]
    1916:	2301      	movs	r3, #1
    1918:	3065      	adds	r0, #101	; 0x65
    191a:	461a      	mov	r2, r3
    191c:	f002 f87e 	bl	3a1c <trace_printf>
    1920:	4620      	mov	r0, r4
    1922:	f000 f94b 	bl	1bbc <__TEE_Panic>
/home/yocto/yocto-rfpf-new/yocto-rfpf/build/tmp/work/cortexa9hf-vfp-neon-ubinux-linux-gnueabi/optee-os/2.0.0+gitAUTOINC+ca6737b41c-r0/git/lib/libutee/tee_api.c:265
    1926:	9a03      	ldr	r2, [sp, #12]
    1928:	4620      	mov	r0, r4
    192a:	682b      	ldr	r3, [r5, #0]
    192c:	429a      	cmp	r2, r3
    192e:	d001      	beq.n	1934 <TEE_Wait+0x4c>
    1930:	f001 fb92 	bl	3058 <__stack_chk_fail>
    1934:	b005      	add	sp, #20
    1936:	bd30      	pop	{r4, r5, pc}
    1938:	ffff0002 	.word	0xffff0002
    193c:	00006c3c 	.word	0x00006c3c
    1940:	0000000c 	.word	0x0000000c
    1944:	0000645a 	.word	0x0000645a
    1948:	000064ee 	.word	0x000064ee

0000194c <TEE_GetTAPersistentTime>:
TEE_GetTAPersistentTime():
/home/yocto/yocto-rfpf-new/yocto-rfpf/build/tmp/work/cortexa9hf-vfp-neon-ubinux-linux-gnueabi/optee-os/2.0.0+gitAUTOINC+ca6737b41c-r0/git/lib/libutee/tee_api.c:268
    194c:	b57f      	push	{r0, r1, r2, r3, r4, r5, r6, lr}
/home/yocto/yocto-rfpf-new/yocto-rfpf/build/tmp/work/cortexa9hf-vfp-neon-ubinux-linux-gnueabi/optee-os/2.0.0+gitAUTOINC+ca6737b41c-r0/git/lib/libutee/tee_api.c:271
    194e:	4601      	mov	r1, r0
/home/yocto/yocto-rfpf-new/yocto-rfpf/build/tmp/work/cortexa9hf-vfp-neon-ubinux-linux-gnueabi/optee-os/2.0.0+gitAUTOINC+ca6737b41c-r0/git/lib/libutee/tee_api.c:268
    1950:	4b1a      	ldr	r3, [pc, #104]	; (19bc <TEE_GetTAPersistentTime+0x70>)
    1952:	4605      	mov	r5, r0
/home/yocto/yocto-rfpf-new/yocto-rfpf/build/tmp/work/cortexa9hf-vfp-neon-ubinux-linux-gnueabi/optee-os/2.0.0+gitAUTOINC+ca6737b41c-r0/git/lib/libutee/tee_api.c:271
    1954:	2001      	movs	r0, #1
/home/yocto/yocto-rfpf-new/yocto-rfpf/build/tmp/work/cortexa9hf-vfp-neon-ubinux-linux-gnueabi/optee-os/2.0.0+gitAUTOINC+ca6737b41c-r0/git/lib/libutee/tee_api.c:268
    1956:	4a1a      	ldr	r2, [pc, #104]	; (19c0 <TEE_GetTAPersistentTime+0x74>)
    1958:	447b      	add	r3, pc
    195a:	589e      	ldr	r6, [r3, r2]
    195c:	6833      	ldr	r3, [r6, #0]
    195e:	9303      	str	r3, [sp, #12]
/home/yocto/yocto-rfpf-new/yocto-rfpf/build/tmp/work/cortexa9hf-vfp-neon-ubinux-linux-gnueabi/optee-os/2.0.0+gitAUTOINC+ca6737b41c-r0/git/lib/libutee/tee_api.c:271
    1960:	f7fe ee26 	blx	5b0 <utee_get_time>
/home/yocto/yocto-rfpf-new/yocto-rfpf/build/tmp/work/cortexa9hf-vfp-neon-ubinux-linux-gnueabi/optee-os/2.0.0+gitAUTOINC+ca6737b41c-r0/git/lib/libutee/tee_api.c:273
    1964:	4604      	mov	r4, r0
    1966:	b1e0      	cbz	r0, 19a2 <TEE_GetTAPersistentTime+0x56>
/home/yocto/yocto-rfpf-new/yocto-rfpf/build/tmp/work/cortexa9hf-vfp-neon-ubinux-linux-gnueabi/optee-os/2.0.0+gitAUTOINC+ca6737b41c-r0/git/lib/libutee/tee_api.c:273 (discriminator 1)
    1968:	4b12      	ldr	r3, [pc, #72]	; (19b4 <TEE_GetTAPersistentTime+0x68>)
    196a:	4298      	cmp	r0, r3
    196c:	d019      	beq.n	19a2 <TEE_GetTAPersistentTime+0x56>
/home/yocto/yocto-rfpf-new/yocto-rfpf/build/tmp/work/cortexa9hf-vfp-neon-ubinux-linux-gnueabi/optee-os/2.0.0+gitAUTOINC+ca6737b41c-r0/git/lib/libutee/tee_api.c:274
    196e:	2300      	movs	r3, #0
    1970:	602b      	str	r3, [r5, #0]
/home/yocto/yocto-rfpf-new/yocto-rfpf/build/tmp/work/cortexa9hf-vfp-neon-ubinux-linux-gnueabi/optee-os/2.0.0+gitAUTOINC+ca6737b41c-r0/git/lib/libutee/tee_api.c:275
    1972:	606b      	str	r3, [r5, #4]
/home/yocto/yocto-rfpf-new/yocto-rfpf/build/tmp/work/cortexa9hf-vfp-neon-ubinux-linux-gnueabi/optee-os/2.0.0+gitAUTOINC+ca6737b41c-r0/git/lib/libutee/tee_api.c:278
    1974:	f500 4330 	add.w	r3, r0, #45056	; 0xb000
    1978:	2b01      	cmp	r3, #1
    197a:	d912      	bls.n	19a2 <TEE_GetTAPersistentTime+0x56>
/home/yocto/yocto-rfpf-new/yocto-rfpf/build/tmp/work/cortexa9hf-vfp-neon-ubinux-linux-gnueabi/optee-os/2.0.0+gitAUTOINC+ca6737b41c-r0/git/lib/libutee/tee_api.c:281
    197c:	4b0e      	ldr	r3, [pc, #56]	; (19b8 <TEE_GetTAPersistentTime+0x6c>)
    197e:	4298      	cmp	r0, r3
    1980:	d00f      	beq.n	19a2 <TEE_GetTAPersistentTime+0x56>
/home/yocto/yocto-rfpf-new/yocto-rfpf/build/tmp/work/cortexa9hf-vfp-neon-ubinux-linux-gnueabi/optee-os/2.0.0+gitAUTOINC+ca6737b41c-r0/git/lib/libutee/tee_api.c:283
    1982:	4b10      	ldr	r3, [pc, #64]	; (19c4 <TEE_GetTAPersistentTime+0x78>)
    1984:	f240 111b 	movw	r1, #283	; 0x11b
    1988:	480f      	ldr	r0, [pc, #60]	; (19c8 <TEE_GetTAPersistentTime+0x7c>)
    198a:	447b      	add	r3, pc
    198c:	4478      	add	r0, pc
    198e:	e9cd 3400 	strd	r3, r4, [sp]
    1992:	2301      	movs	r3, #1
    1994:	306e      	adds	r0, #110	; 0x6e
    1996:	461a      	mov	r2, r3
    1998:	f002 f840 	bl	3a1c <trace_printf>
    199c:	4620      	mov	r0, r4
    199e:	f000 f90d 	bl	1bbc <__TEE_Panic>
/home/yocto/yocto-rfpf-new/yocto-rfpf/build/tmp/work/cortexa9hf-vfp-neon-ubinux-linux-gnueabi/optee-os/2.0.0+gitAUTOINC+ca6737b41c-r0/git/lib/libutee/tee_api.c:286
    19a2:	9a03      	ldr	r2, [sp, #12]
    19a4:	4620      	mov	r0, r4
    19a6:	6833      	ldr	r3, [r6, #0]
    19a8:	429a      	cmp	r2, r3
    19aa:	d001      	beq.n	19b0 <TEE_GetTAPersistentTime+0x64>
    19ac:	f001 fb54 	bl	3058 <__stack_chk_fail>
    19b0:	b004      	add	sp, #16
    19b2:	bd70      	pop	{r4, r5, r6, pc}
    19b4:	ffff300f 	.word	0xffff300f
    19b8:	ffff000c 	.word	0xffff000c
    19bc:	00006bd4 	.word	0x00006bd4
    19c0:	0000000c 	.word	0x0000000c
    19c4:	000063de 	.word	0x000063de
    19c8:	00006472 	.word	0x00006472

000019cc <TEE_SetTAPersistentTime>:
TEE_SetTAPersistentTime():
/home/yocto/yocto-rfpf-new/yocto-rfpf/build/tmp/work/cortexa9hf-vfp-neon-ubinux-linux-gnueabi/optee-os/2.0.0+gitAUTOINC+ca6737b41c-r0/git/lib/libutee/tee_api.c:289
    19cc:	4b17      	ldr	r3, [pc, #92]	; (1a2c <TEE_SetTAPersistentTime+0x60>)
    19ce:	4a18      	ldr	r2, [pc, #96]	; (1a30 <TEE_SetTAPersistentTime+0x64>)
    19d0:	b530      	push	{r4, r5, lr}
    19d2:	b085      	sub	sp, #20
    19d4:	447b      	add	r3, pc
    19d6:	589d      	ldr	r5, [r3, r2]
    19d8:	682b      	ldr	r3, [r5, #0]
    19da:	9303      	str	r3, [sp, #12]
/home/yocto/yocto-rfpf-new/yocto-rfpf/build/tmp/work/cortexa9hf-vfp-neon-ubinux-linux-gnueabi/optee-os/2.0.0+gitAUTOINC+ca6737b41c-r0/git/lib/libutee/tee_api.c:292
    19dc:	f7fe edf2 	blx	5c4 <utee_set_ta_time>
/home/yocto/yocto-rfpf-new/yocto-rfpf/build/tmp/work/cortexa9hf-vfp-neon-ubinux-linux-gnueabi/optee-os/2.0.0+gitAUTOINC+ca6737b41c-r0/git/lib/libutee/tee_api.c:294
    19e0:	4604      	mov	r4, r0
    19e2:	b1a8      	cbz	r0, 1a10 <TEE_SetTAPersistentTime+0x44>
/home/yocto/yocto-rfpf-new/yocto-rfpf/build/tmp/work/cortexa9hf-vfp-neon-ubinux-linux-gnueabi/optee-os/2.0.0+gitAUTOINC+ca6737b41c-r0/git/lib/libutee/tee_api.c:294 (discriminator 1)
    19e4:	4b0f      	ldr	r3, [pc, #60]	; (1a24 <TEE_SetTAPersistentTime+0x58>)
    19e6:	4298      	cmp	r0, r3
    19e8:	d012      	beq.n	1a10 <TEE_SetTAPersistentTime+0x44>
/home/yocto/yocto-rfpf-new/yocto-rfpf/build/tmp/work/cortexa9hf-vfp-neon-ubinux-linux-gnueabi/optee-os/2.0.0+gitAUTOINC+ca6737b41c-r0/git/lib/libutee/tee_api.c:295
    19ea:	4b0f      	ldr	r3, [pc, #60]	; (1a28 <TEE_SetTAPersistentTime+0x5c>)
    19ec:	4298      	cmp	r0, r3
    19ee:	d00f      	beq.n	1a10 <TEE_SetTAPersistentTime+0x44>
/home/yocto/yocto-rfpf-new/yocto-rfpf/build/tmp/work/cortexa9hf-vfp-neon-ubinux-linux-gnueabi/optee-os/2.0.0+gitAUTOINC+ca6737b41c-r0/git/lib/libutee/tee_api.c:297
    19f0:	4b10      	ldr	r3, [pc, #64]	; (1a34 <TEE_SetTAPersistentTime+0x68>)
    19f2:	f240 1129 	movw	r1, #297	; 0x129
    19f6:	4810      	ldr	r0, [pc, #64]	; (1a38 <TEE_SetTAPersistentTime+0x6c>)
    19f8:	447b      	add	r3, pc
    19fa:	4478      	add	r0, pc
    19fc:	e9cd 3400 	strd	r3, r4, [sp]
    1a00:	2301      	movs	r3, #1
    1a02:	3086      	adds	r0, #134	; 0x86
    1a04:	461a      	mov	r2, r3
    1a06:	f002 f809 	bl	3a1c <trace_printf>
    1a0a:	4620      	mov	r0, r4
    1a0c:	f000 f8d6 	bl	1bbc <__TEE_Panic>
/home/yocto/yocto-rfpf-new/yocto-rfpf/build/tmp/work/cortexa9hf-vfp-neon-ubinux-linux-gnueabi/optee-os/2.0.0+gitAUTOINC+ca6737b41c-r0/git/lib/libutee/tee_api.c:300
    1a10:	9a03      	ldr	r2, [sp, #12]
    1a12:	4620      	mov	r0, r4
    1a14:	682b      	ldr	r3, [r5, #0]
    1a16:	429a      	cmp	r2, r3
    1a18:	d001      	beq.n	1a1e <TEE_SetTAPersistentTime+0x52>
    1a1a:	f001 fb1d 	bl	3058 <__stack_chk_fail>
    1a1e:	b005      	add	sp, #20
    1a20:	bd30      	pop	{r4, r5, pc}
    1a22:	bf00      	nop
    1a24:	ffff000c 	.word	0xffff000c
    1a28:	ffff3041 	.word	0xffff3041
    1a2c:	00006b58 	.word	0x00006b58
    1a30:	0000000c 	.word	0x0000000c
    1a34:	00006370 	.word	0x00006370
    1a38:	00006404 	.word	0x00006404

00001a3c <TEE_GetREETime>:
TEE_GetREETime():
/home/yocto/yocto-rfpf-new/yocto-rfpf/build/tmp/work/cortexa9hf-vfp-neon-ubinux-linux-gnueabi/optee-os/2.0.0+gitAUTOINC+ca6737b41c-r0/git/lib/libutee/tee_api.c:303
    1a3c:	4b16      	ldr	r3, [pc, #88]	; (1a98 <TEE_GetREETime+0x5c>)
/home/yocto/yocto-rfpf-new/yocto-rfpf/build/tmp/work/cortexa9hf-vfp-neon-ubinux-linux-gnueabi/optee-os/2.0.0+gitAUTOINC+ca6737b41c-r0/git/lib/libutee/tee_api.c:304
    1a3e:	4601      	mov	r1, r0
    1a40:	2002      	movs	r0, #2
/home/yocto/yocto-rfpf-new/yocto-rfpf/build/tmp/work/cortexa9hf-vfp-neon-ubinux-linux-gnueabi/optee-os/2.0.0+gitAUTOINC+ca6737b41c-r0/git/lib/libutee/tee_api.c:303
    1a42:	4a16      	ldr	r2, [pc, #88]	; (1a9c <TEE_GetREETime+0x60>)
    1a44:	b530      	push	{r4, r5, lr}
    1a46:	b085      	sub	sp, #20
    1a48:	447b      	add	r3, pc
    1a4a:	589c      	ldr	r4, [r3, r2]
    1a4c:	6823      	ldr	r3, [r4, #0]
    1a4e:	9303      	str	r3, [sp, #12]
/home/yocto/yocto-rfpf-new/yocto-rfpf/build/tmp/work/cortexa9hf-vfp-neon-ubinux-linux-gnueabi/optee-os/2.0.0+gitAUTOINC+ca6737b41c-r0/git/lib/libutee/tee_api.c:304
    1a50:	f7fe edae 	blx	5b0 <utee_get_time>
/home/yocto/yocto-rfpf-new/yocto-rfpf/build/tmp/work/cortexa9hf-vfp-neon-ubinux-linux-gnueabi/optee-os/2.0.0+gitAUTOINC+ca6737b41c-r0/git/lib/libutee/tee_api.c:306
    1a54:	b1b8      	cbz	r0, 1a86 <TEE_GetREETime+0x4a>
/home/yocto/yocto-rfpf-new/yocto-rfpf/build/tmp/work/cortexa9hf-vfp-neon-ubinux-linux-gnueabi/optee-os/2.0.0+gitAUTOINC+ca6737b41c-r0/git/lib/libutee/tee_api.c:307
    1a56:	4b12      	ldr	r3, [pc, #72]	; (1aa0 <TEE_GetREETime+0x64>)
    1a58:	2500      	movs	r5, #0
    1a5a:	f240 1133 	movw	r1, #307	; 0x133
    1a5e:	4811      	ldr	r0, [pc, #68]	; (1aa4 <TEE_GetREETime+0x68>)
    1a60:	447b      	add	r3, pc
    1a62:	4478      	add	r0, pc
    1a64:	e9cd 3500 	strd	r3, r5, [sp]
    1a68:	2301      	movs	r3, #1
    1a6a:	309e      	adds	r0, #158	; 0x9e
    1a6c:	461a      	mov	r2, r3
    1a6e:	f001 ffd5 	bl	3a1c <trace_printf>
    1a72:	9a03      	ldr	r2, [sp, #12]
    1a74:	6823      	ldr	r3, [r4, #0]
    1a76:	429a      	cmp	r2, r3
    1a78:	d109      	bne.n	1a8e <TEE_GetREETime+0x52>
    1a7a:	4628      	mov	r0, r5
/home/yocto/yocto-rfpf-new/yocto-rfpf/build/tmp/work/cortexa9hf-vfp-neon-ubinux-linux-gnueabi/optee-os/2.0.0+gitAUTOINC+ca6737b41c-r0/git/lib/libutee/tee_api.c:308
    1a7c:	b005      	add	sp, #20
    1a7e:	e8bd 4030 	ldmia.w	sp!, {r4, r5, lr}
/home/yocto/yocto-rfpf-new/yocto-rfpf/build/tmp/work/cortexa9hf-vfp-neon-ubinux-linux-gnueabi/optee-os/2.0.0+gitAUTOINC+ca6737b41c-r0/git/lib/libutee/tee_api.c:307
    1a82:	f000 b89b 	b.w	1bbc <__TEE_Panic>
/home/yocto/yocto-rfpf-new/yocto-rfpf/build/tmp/work/cortexa9hf-vfp-neon-ubinux-linux-gnueabi/optee-os/2.0.0+gitAUTOINC+ca6737b41c-r0/git/lib/libutee/tee_api.c:308
    1a86:	9a03      	ldr	r2, [sp, #12]
    1a88:	6823      	ldr	r3, [r4, #0]
    1a8a:	429a      	cmp	r2, r3
    1a8c:	d001      	beq.n	1a92 <TEE_GetREETime+0x56>
    1a8e:	f001 fae3 	bl	3058 <__stack_chk_fail>
    1a92:	b005      	add	sp, #20
    1a94:	bd30      	pop	{r4, r5, pc}
    1a96:	bf00      	nop
    1a98:	00006ae4 	.word	0x00006ae4
    1a9c:	0000000c 	.word	0x0000000c
    1aa0:	00006308 	.word	0x00006308
    1aa4:	0000639c 	.word	0x0000639c

00001aa8 <TEE_Malloc>:
TEE_Malloc():
/home/yocto/yocto-rfpf-new/yocto-rfpf/build/tmp/work/cortexa9hf-vfp-neon-ubinux-linux-gnueabi/optee-os/2.0.0+gitAUTOINC+ca6737b41c-r0/git/lib/libutee/tee_api.c:311
    1aa8:	4b08      	ldr	r3, [pc, #32]	; (1acc <TEE_Malloc+0x24>)
    1aaa:	b507      	push	{r0, r1, r2, lr}
    1aac:	4a08      	ldr	r2, [pc, #32]	; (1ad0 <TEE_Malloc+0x28>)
    1aae:	447b      	add	r3, pc
    1ab0:	589b      	ldr	r3, [r3, r2]
    1ab2:	681a      	ldr	r2, [r3, #0]
    1ab4:	9201      	str	r2, [sp, #4]
/home/yocto/yocto-rfpf-new/yocto-rfpf/build/tmp/work/cortexa9hf-vfp-neon-ubinux-linux-gnueabi/optee-os/2.0.0+gitAUTOINC+ca6737b41c-r0/git/lib/libutee/tee_api.c:312
    1ab6:	9a01      	ldr	r2, [sp, #4]
    1ab8:	681b      	ldr	r3, [r3, #0]
    1aba:	429a      	cmp	r2, r3
    1abc:	d001      	beq.n	1ac2 <TEE_Malloc+0x1a>
    1abe:	f001 facb 	bl	3058 <__stack_chk_fail>
/home/yocto/yocto-rfpf-new/yocto-rfpf/build/tmp/work/cortexa9hf-vfp-neon-ubinux-linux-gnueabi/optee-os/2.0.0+gitAUTOINC+ca6737b41c-r0/git/lib/libutee/tee_api.c:313
    1ac2:	b003      	add	sp, #12
    1ac4:	f85d eb04 	ldr.w	lr, [sp], #4
/home/yocto/yocto-rfpf-new/yocto-rfpf/build/tmp/work/cortexa9hf-vfp-neon-ubinux-linux-gnueabi/optee-os/2.0.0+gitAUTOINC+ca6737b41c-r0/git/lib/libutee/tee_api.c:312
    1ac8:	f000 b9aa 	b.w	1e20 <tee_user_mem_alloc>
    1acc:	00006a7e 	.word	0x00006a7e
    1ad0:	0000000c 	.word	0x0000000c

00001ad4 <TEE_Realloc>:
TEE_Realloc():
/home/yocto/yocto-rfpf-new/yocto-rfpf/build/tmp/work/cortexa9hf-vfp-neon-ubinux-linux-gnueabi/optee-os/2.0.0+gitAUTOINC+ca6737b41c-r0/git/lib/libutee/tee_api.c:316
    1ad4:	4b08      	ldr	r3, [pc, #32]	; (1af8 <TEE_Realloc+0x24>)
    1ad6:	b507      	push	{r0, r1, r2, lr}
    1ad8:	4a08      	ldr	r2, [pc, #32]	; (1afc <TEE_Realloc+0x28>)
    1ada:	447b      	add	r3, pc
    1adc:	589b      	ldr	r3, [r3, r2]
    1ade:	681a      	ldr	r2, [r3, #0]
    1ae0:	9201      	str	r2, [sp, #4]
/home/yocto/yocto-rfpf-new/yocto-rfpf/build/tmp/work/cortexa9hf-vfp-neon-ubinux-linux-gnueabi/optee-os/2.0.0+gitAUTOINC+ca6737b41c-r0/git/lib/libutee/tee_api.c:321
    1ae2:	9a01      	ldr	r2, [sp, #4]
    1ae4:	681b      	ldr	r3, [r3, #0]
    1ae6:	429a      	cmp	r2, r3
    1ae8:	d001      	beq.n	1aee <TEE_Realloc+0x1a>
    1aea:	f001 fab5 	bl	3058 <__stack_chk_fail>
/home/yocto/yocto-rfpf-new/yocto-rfpf/build/tmp/work/cortexa9hf-vfp-neon-ubinux-linux-gnueabi/optee-os/2.0.0+gitAUTOINC+ca6737b41c-r0/git/lib/libutee/tee_api.c:322
    1aee:	b003      	add	sp, #12
    1af0:	f85d eb04 	ldr.w	lr, [sp], #4
/home/yocto/yocto-rfpf-new/yocto-rfpf/build/tmp/work/cortexa9hf-vfp-neon-ubinux-linux-gnueabi/optee-os/2.0.0+gitAUTOINC+ca6737b41c-r0/git/lib/libutee/tee_api.c:321
    1af4:	f000 ba92 	b.w	201c <tee_user_mem_realloc>
    1af8:	00006a52 	.word	0x00006a52
    1afc:	0000000c 	.word	0x0000000c

00001b00 <TEE_Free>:
TEE_Free():
/home/yocto/yocto-rfpf-new/yocto-rfpf/build/tmp/work/cortexa9hf-vfp-neon-ubinux-linux-gnueabi/optee-os/2.0.0+gitAUTOINC+ca6737b41c-r0/git/lib/libutee/tee_api.c:325
    1b00:	4b08      	ldr	r3, [pc, #32]	; (1b24 <TEE_Free+0x24>)
    1b02:	b507      	push	{r0, r1, r2, lr}
    1b04:	4a08      	ldr	r2, [pc, #32]	; (1b28 <TEE_Free+0x28>)
    1b06:	447b      	add	r3, pc
    1b08:	589b      	ldr	r3, [r3, r2]
    1b0a:	681a      	ldr	r2, [r3, #0]
    1b0c:	9201      	str	r2, [sp, #4]
/home/yocto/yocto-rfpf-new/yocto-rfpf/build/tmp/work/cortexa9hf-vfp-neon-ubinux-linux-gnueabi/optee-os/2.0.0+gitAUTOINC+ca6737b41c-r0/git/lib/libutee/tee_api.c:326
    1b0e:	9a01      	ldr	r2, [sp, #4]
    1b10:	681b      	ldr	r3, [r3, #0]
    1b12:	429a      	cmp	r2, r3
    1b14:	d001      	beq.n	1b1a <TEE_Free+0x1a>
    1b16:	f001 fa9f 	bl	3058 <__stack_chk_fail>
/home/yocto/yocto-rfpf-new/yocto-rfpf/build/tmp/work/cortexa9hf-vfp-neon-ubinux-linux-gnueabi/optee-os/2.0.0+gitAUTOINC+ca6737b41c-r0/git/lib/libutee/tee_api.c:327
    1b1a:	b003      	add	sp, #12
    1b1c:	f85d eb04 	ldr.w	lr, [sp], #4
/home/yocto/yocto-rfpf-new/yocto-rfpf/build/tmp/work/cortexa9hf-vfp-neon-ubinux-linux-gnueabi/optee-os/2.0.0+gitAUTOINC+ca6737b41c-r0/git/lib/libutee/tee_api.c:326
    1b20:	f000 b9f8 	b.w	1f14 <tee_user_mem_free>
    1b24:	00006a26 	.word	0x00006a26
    1b28:	0000000c 	.word	0x0000000c

00001b2c <TEE_CacheClean>:
TEE_CacheClean():
/home/yocto/yocto-rfpf-new/yocto-rfpf/build/tmp/work/cortexa9hf-vfp-neon-ubinux-linux-gnueabi/optee-os/2.0.0+gitAUTOINC+ca6737b41c-r0/git/lib/libutee/tee_api.c:331
    1b2c:	4b09      	ldr	r3, [pc, #36]	; (1b54 <TEE_CacheClean+0x28>)
    1b2e:	b507      	push	{r0, r1, r2, lr}
    1b30:	4a09      	ldr	r2, [pc, #36]	; (1b58 <TEE_CacheClean+0x2c>)
    1b32:	447b      	add	r3, pc
    1b34:	589b      	ldr	r3, [r3, r2]
    1b36:	681a      	ldr	r2, [r3, #0]
    1b38:	9201      	str	r2, [sp, #4]
/home/yocto/yocto-rfpf-new/yocto-rfpf/build/tmp/work/cortexa9hf-vfp-neon-ubinux-linux-gnueabi/optee-os/2.0.0+gitAUTOINC+ca6737b41c-r0/git/lib/libutee/tee_api.c:332
    1b3a:	9a01      	ldr	r2, [sp, #4]
    1b3c:	681b      	ldr	r3, [r3, #0]
    1b3e:	429a      	cmp	r2, r3
    1b40:	d001      	beq.n	1b46 <TEE_CacheClean+0x1a>
    1b42:	f001 fa89 	bl	3058 <__stack_chk_fail>
    1b46:	2200      	movs	r2, #0
/home/yocto/yocto-rfpf-new/yocto-rfpf/build/tmp/work/cortexa9hf-vfp-neon-ubinux-linux-gnueabi/optee-os/2.0.0+gitAUTOINC+ca6737b41c-r0/git/lib/libutee/tee_api.c:333
    1b48:	b003      	add	sp, #12
    1b4a:	f85d eb04 	ldr.w	lr, [sp], #4
/home/yocto/yocto-rfpf-new/yocto-rfpf/build/tmp/work/cortexa9hf-vfp-neon-ubinux-linux-gnueabi/optee-os/2.0.0+gitAUTOINC+ca6737b41c-r0/git/lib/libutee/tee_api.c:332
    1b4e:	f005 b96f 	b.w	6e30 <__utee_cache_operation_from_thumb>
    1b52:	bf00      	nop
    1b54:	000069fa 	.word	0x000069fa
    1b58:	0000000c 	.word	0x0000000c

00001b5c <TEE_CacheFlush>:
TEE_CacheFlush():
/home/yocto/yocto-rfpf-new/yocto-rfpf/build/tmp/work/cortexa9hf-vfp-neon-ubinux-linux-gnueabi/optee-os/2.0.0+gitAUTOINC+ca6737b41c-r0/git/lib/libutee/tee_api.c:335
    1b5c:	4b09      	ldr	r3, [pc, #36]	; (1b84 <TEE_CacheFlush+0x28>)
    1b5e:	b507      	push	{r0, r1, r2, lr}
    1b60:	4a09      	ldr	r2, [pc, #36]	; (1b88 <TEE_CacheFlush+0x2c>)
    1b62:	447b      	add	r3, pc
    1b64:	589b      	ldr	r3, [r3, r2]
    1b66:	681a      	ldr	r2, [r3, #0]
    1b68:	9201      	str	r2, [sp, #4]
/home/yocto/yocto-rfpf-new/yocto-rfpf/build/tmp/work/cortexa9hf-vfp-neon-ubinux-linux-gnueabi/optee-os/2.0.0+gitAUTOINC+ca6737b41c-r0/git/lib/libutee/tee_api.c:336
    1b6a:	9a01      	ldr	r2, [sp, #4]
    1b6c:	681b      	ldr	r3, [r3, #0]
    1b6e:	429a      	cmp	r2, r3
    1b70:	d001      	beq.n	1b76 <TEE_CacheFlush+0x1a>
    1b72:	f001 fa71 	bl	3058 <__stack_chk_fail>
    1b76:	2201      	movs	r2, #1
/home/yocto/yocto-rfpf-new/yocto-rfpf/build/tmp/work/cortexa9hf-vfp-neon-ubinux-linux-gnueabi/optee-os/2.0.0+gitAUTOINC+ca6737b41c-r0/git/lib/libutee/tee_api.c:337
    1b78:	b003      	add	sp, #12
    1b7a:	f85d eb04 	ldr.w	lr, [sp], #4
/home/yocto/yocto-rfpf-new/yocto-rfpf/build/tmp/work/cortexa9hf-vfp-neon-ubinux-linux-gnueabi/optee-os/2.0.0+gitAUTOINC+ca6737b41c-r0/git/lib/libutee/tee_api.c:336
    1b7e:	f005 b957 	b.w	6e30 <__utee_cache_operation_from_thumb>
    1b82:	bf00      	nop
    1b84:	000069ca 	.word	0x000069ca
    1b88:	0000000c 	.word	0x0000000c

00001b8c <TEE_CacheInvalidate>:
TEE_CacheInvalidate():
/home/yocto/yocto-rfpf-new/yocto-rfpf/build/tmp/work/cortexa9hf-vfp-neon-ubinux-linux-gnueabi/optee-os/2.0.0+gitAUTOINC+ca6737b41c-r0/git/lib/libutee/tee_api.c:340
    1b8c:	4b09      	ldr	r3, [pc, #36]	; (1bb4 <TEE_CacheInvalidate+0x28>)
    1b8e:	b507      	push	{r0, r1, r2, lr}
    1b90:	4a09      	ldr	r2, [pc, #36]	; (1bb8 <TEE_CacheInvalidate+0x2c>)
    1b92:	447b      	add	r3, pc
    1b94:	589b      	ldr	r3, [r3, r2]
    1b96:	681a      	ldr	r2, [r3, #0]
    1b98:	9201      	str	r2, [sp, #4]
/home/yocto/yocto-rfpf-new/yocto-rfpf/build/tmp/work/cortexa9hf-vfp-neon-ubinux-linux-gnueabi/optee-os/2.0.0+gitAUTOINC+ca6737b41c-r0/git/lib/libutee/tee_api.c:341
    1b9a:	9a01      	ldr	r2, [sp, #4]
    1b9c:	681b      	ldr	r3, [r3, #0]
    1b9e:	429a      	cmp	r2, r3
    1ba0:	d001      	beq.n	1ba6 <TEE_CacheInvalidate+0x1a>
    1ba2:	f001 fa59 	bl	3058 <__stack_chk_fail>
    1ba6:	2202      	movs	r2, #2
/home/yocto/yocto-rfpf-new/yocto-rfpf/build/tmp/work/cortexa9hf-vfp-neon-ubinux-linux-gnueabi/optee-os/2.0.0+gitAUTOINC+ca6737b41c-r0/git/lib/libutee/tee_api.c:342
    1ba8:	b003      	add	sp, #12
    1baa:	f85d eb04 	ldr.w	lr, [sp], #4
/home/yocto/yocto-rfpf-new/yocto-rfpf/build/tmp/work/cortexa9hf-vfp-neon-ubinux-linux-gnueabi/optee-os/2.0.0+gitAUTOINC+ca6737b41c-r0/git/lib/libutee/tee_api.c:341
    1bae:	f005 b93f 	b.w	6e30 <__utee_cache_operation_from_thumb>
    1bb2:	bf00      	nop
    1bb4:	0000699a 	.word	0x0000699a
    1bb8:	0000000c 	.word	0x0000000c

00001bbc <__TEE_Panic>:
__TEE_Panic():
    1bbc:	4b04      	ldr	r3, [pc, #16]	; (1bd0 <__TEE_Panic+0x14>)
    1bbe:	b507      	push	{r0, r1, r2, lr}
    1bc0:	4a04      	ldr	r2, [pc, #16]	; (1bd4 <__TEE_Panic+0x18>)
    1bc2:	447b      	add	r3, pc
    1bc4:	589b      	ldr	r3, [r3, r2]
    1bc6:	681b      	ldr	r3, [r3, #0]
    1bc8:	9301      	str	r3, [sp, #4]
    1bca:	f7fe ec7e 	blx	4c8 <utee_panic>
    1bce:	bf00      	nop
    1bd0:	0000696a 	.word	0x0000696a
    1bd4:	0000000c 	.word	0x0000000c

00001bd8 <TEE_Panic>:
TEE_Panic():
/home/yocto/yocto-rfpf-new/yocto-rfpf/build/tmp/work/cortexa9hf-vfp-neon-ubinux-linux-gnueabi/optee-os/2.0.0+gitAUTOINC+ca6737b41c-r0/git/lib/libutee/tee_api_panic.c:40
    1bd8:	4b04      	ldr	r3, [pc, #16]	; (1bec <TEE_Panic+0x14>)
    1bda:	b507      	push	{r0, r1, r2, lr}
    1bdc:	4a04      	ldr	r2, [pc, #16]	; (1bf0 <TEE_Panic+0x18>)
    1bde:	447b      	add	r3, pc
    1be0:	589b      	ldr	r3, [r3, r2]
    1be2:	681b      	ldr	r3, [r3, #0]
    1be4:	9301      	str	r3, [sp, #4]
__TEE_Panic():
/home/yocto/yocto-rfpf-new/yocto-rfpf/build/tmp/work/cortexa9hf-vfp-neon-ubinux-linux-gnueabi/optee-os/2.0.0+gitAUTOINC+ca6737b41c-r0/git/lib/libutee/tee_api_panic.c:36
    1be6:	f7fe ec70 	blx	4c8 <utee_panic>
    1bea:	bf00      	nop
    1bec:	0000694e 	.word	0x0000694e
    1bf0:	0000000c 	.word	0x0000000c

00001bf4 <utee_get_ta_exec_id>:
utee_get_ta_exec_id():
    1bf4:	4b08      	ldr	r3, [pc, #32]	; (1c18 <utee_get_ta_exec_id+0x24>)
    1bf6:	b507      	push	{r0, r1, r2, lr}
/home/yocto/yocto-rfpf-new/yocto-rfpf/build/tmp/work/cortexa9hf-vfp-neon-ubinux-linux-gnueabi/optee-os/2.0.0+gitAUTOINC+ca6737b41c-r0/git/lib/libutee/arch/arm/utee_misc.c:39
    1bf8:	2000      	movs	r0, #0
/home/yocto/yocto-rfpf-new/yocto-rfpf/build/tmp/work/cortexa9hf-vfp-neon-ubinux-linux-gnueabi/optee-os/2.0.0+gitAUTOINC+ca6737b41c-r0/git/lib/libutee/arch/arm/utee_misc.c:36
    1bfa:	4a08      	ldr	r2, [pc, #32]	; (1c1c <utee_get_ta_exec_id+0x28>)
    1bfc:	447b      	add	r3, pc
    1bfe:	589b      	ldr	r3, [r3, r2]
    1c00:	681a      	ldr	r2, [r3, #0]
    1c02:	9201      	str	r2, [sp, #4]
/home/yocto/yocto-rfpf-new/yocto-rfpf/build/tmp/work/cortexa9hf-vfp-neon-ubinux-linux-gnueabi/optee-os/2.0.0+gitAUTOINC+ca6737b41c-r0/git/lib/libutee/arch/arm/utee_misc.c:39
    1c04:	9a01      	ldr	r2, [sp, #4]
    1c06:	681b      	ldr	r3, [r3, #0]
    1c08:	429a      	cmp	r2, r3
    1c0a:	d001      	beq.n	1c10 <utee_get_ta_exec_id+0x1c>
    1c0c:	f001 fa24 	bl	3058 <__stack_chk_fail>
    1c10:	b003      	add	sp, #12
    1c12:	f85d fb04 	ldr.w	pc, [sp], #4
    1c16:	bf00      	nop
    1c18:	00006930 	.word	0x00006930
    1c1c:	0000000c 	.word	0x0000000c

00001c20 <utee_malloc>:
utee_malloc():
/home/yocto/yocto-rfpf-new/yocto-rfpf/build/tmp/work/cortexa9hf-vfp-neon-ubinux-linux-gnueabi/optee-os/2.0.0+gitAUTOINC+ca6737b41c-r0/git/lib/libutee/arch/arm/utee_misc.c:43
    1c20:	4b08      	ldr	r3, [pc, #32]	; (1c44 <utee_malloc+0x24>)
    1c22:	b507      	push	{r0, r1, r2, lr}
    1c24:	4a08      	ldr	r2, [pc, #32]	; (1c48 <utee_malloc+0x28>)
    1c26:	447b      	add	r3, pc
    1c28:	589b      	ldr	r3, [r3, r2]
    1c2a:	681a      	ldr	r2, [r3, #0]
    1c2c:	9201      	str	r2, [sp, #4]
/home/yocto/yocto-rfpf-new/yocto-rfpf/build/tmp/work/cortexa9hf-vfp-neon-ubinux-linux-gnueabi/optee-os/2.0.0+gitAUTOINC+ca6737b41c-r0/git/lib/libutee/arch/arm/utee_misc.c:44
    1c2e:	9a01      	ldr	r2, [sp, #4]
    1c30:	681b      	ldr	r3, [r3, #0]
    1c32:	429a      	cmp	r2, r3
    1c34:	d001      	beq.n	1c3a <utee_malloc+0x1a>
    1c36:	f001 fa0f 	bl	3058 <__stack_chk_fail>
/home/yocto/yocto-rfpf-new/yocto-rfpf/build/tmp/work/cortexa9hf-vfp-neon-ubinux-linux-gnueabi/optee-os/2.0.0+gitAUTOINC+ca6737b41c-r0/git/lib/libutee/arch/arm/utee_misc.c:45
    1c3a:	b003      	add	sp, #12
    1c3c:	f85d eb04 	ldr.w	lr, [sp], #4
/home/yocto/yocto-rfpf-new/yocto-rfpf/build/tmp/work/cortexa9hf-vfp-neon-ubinux-linux-gnueabi/optee-os/2.0.0+gitAUTOINC+ca6737b41c-r0/git/lib/libutee/arch/arm/utee_misc.c:44
    1c40:	f000 bf30 	b.w	2aa4 <malloc>
    1c44:	00006906 	.word	0x00006906
    1c48:	0000000c 	.word	0x0000000c

00001c4c <utee_realloc>:
utee_realloc():
/home/yocto/yocto-rfpf-new/yocto-rfpf/build/tmp/work/cortexa9hf-vfp-neon-ubinux-linux-gnueabi/optee-os/2.0.0+gitAUTOINC+ca6737b41c-r0/git/lib/libutee/arch/arm/utee_misc.c:48
    1c4c:	4b08      	ldr	r3, [pc, #32]	; (1c70 <utee_realloc+0x24>)
    1c4e:	b507      	push	{r0, r1, r2, lr}
    1c50:	4a08      	ldr	r2, [pc, #32]	; (1c74 <utee_realloc+0x28>)
    1c52:	447b      	add	r3, pc
    1c54:	589b      	ldr	r3, [r3, r2]
    1c56:	681a      	ldr	r2, [r3, #0]
    1c58:	9201      	str	r2, [sp, #4]
/home/yocto/yocto-rfpf-new/yocto-rfpf/build/tmp/work/cortexa9hf-vfp-neon-ubinux-linux-gnueabi/optee-os/2.0.0+gitAUTOINC+ca6737b41c-r0/git/lib/libutee/arch/arm/utee_misc.c:49
    1c5a:	9a01      	ldr	r2, [sp, #4]
    1c5c:	681b      	ldr	r3, [r3, #0]
    1c5e:	429a      	cmp	r2, r3
    1c60:	d001      	beq.n	1c66 <utee_realloc+0x1a>
    1c62:	f001 f9f9 	bl	3058 <__stack_chk_fail>
/home/yocto/yocto-rfpf-new/yocto-rfpf/build/tmp/work/cortexa9hf-vfp-neon-ubinux-linux-gnueabi/optee-os/2.0.0+gitAUTOINC+ca6737b41c-r0/git/lib/libutee/arch/arm/utee_misc.c:50
    1c66:	b003      	add	sp, #12
    1c68:	f85d eb04 	ldr.w	lr, [sp], #4
/home/yocto/yocto-rfpf-new/yocto-rfpf/build/tmp/work/cortexa9hf-vfp-neon-ubinux-linux-gnueabi/optee-os/2.0.0+gitAUTOINC+ca6737b41c-r0/git/lib/libutee/arch/arm/utee_misc.c:49
    1c6c:	f000 bf78 	b.w	2b60 <realloc>
    1c70:	000068da 	.word	0x000068da
    1c74:	0000000c 	.word	0x0000000c

00001c78 <utee_calloc>:
utee_calloc():
/home/yocto/yocto-rfpf-new/yocto-rfpf/build/tmp/work/cortexa9hf-vfp-neon-ubinux-linux-gnueabi/optee-os/2.0.0+gitAUTOINC+ca6737b41c-r0/git/lib/libutee/arch/arm/utee_misc.c:53
    1c78:	4b0a      	ldr	r3, [pc, #40]	; (1ca4 <utee_calloc+0x2c>)
    1c7a:	b507      	push	{r0, r1, r2, lr}
    1c7c:	460a      	mov	r2, r1
    1c7e:	490a      	ldr	r1, [pc, #40]	; (1ca8 <utee_calloc+0x30>)
    1c80:	447b      	add	r3, pc
    1c82:	585b      	ldr	r3, [r3, r1]
    1c84:	6819      	ldr	r1, [r3, #0]
    1c86:	9101      	str	r1, [sp, #4]
/home/yocto/yocto-rfpf-new/yocto-rfpf/build/tmp/work/cortexa9hf-vfp-neon-ubinux-linux-gnueabi/optee-os/2.0.0+gitAUTOINC+ca6737b41c-r0/git/lib/libutee/arch/arm/utee_misc.c:54
    1c88:	9901      	ldr	r1, [sp, #4]
    1c8a:	681b      	ldr	r3, [r3, #0]
    1c8c:	4299      	cmp	r1, r3
    1c8e:	d001      	beq.n	1c94 <utee_calloc+0x1c>
    1c90:	f001 f9e2 	bl	3058 <__stack_chk_fail>
    1c94:	4601      	mov	r1, r0
    1c96:	4610      	mov	r0, r2
/home/yocto/yocto-rfpf-new/yocto-rfpf/build/tmp/work/cortexa9hf-vfp-neon-ubinux-linux-gnueabi/optee-os/2.0.0+gitAUTOINC+ca6737b41c-r0/git/lib/libutee/arch/arm/utee_misc.c:55
    1c98:	b003      	add	sp, #12
    1c9a:	f85d eb04 	ldr.w	lr, [sp], #4
/home/yocto/yocto-rfpf-new/yocto-rfpf/build/tmp/work/cortexa9hf-vfp-neon-ubinux-linux-gnueabi/optee-os/2.0.0+gitAUTOINC+ca6737b41c-r0/git/lib/libutee/arch/arm/utee_misc.c:54
    1c9e:	f000 bf39 	b.w	2b14 <calloc>
    1ca2:	bf00      	nop
    1ca4:	000068ac 	.word	0x000068ac
    1ca8:	0000000c 	.word	0x0000000c

00001cac <utee_free>:
utee_free():
/home/yocto/yocto-rfpf-new/yocto-rfpf/build/tmp/work/cortexa9hf-vfp-neon-ubinux-linux-gnueabi/optee-os/2.0.0+gitAUTOINC+ca6737b41c-r0/git/lib/libutee/arch/arm/utee_misc.c:58
    1cac:	4b08      	ldr	r3, [pc, #32]	; (1cd0 <utee_free+0x24>)
    1cae:	b507      	push	{r0, r1, r2, lr}
    1cb0:	4a08      	ldr	r2, [pc, #32]	; (1cd4 <utee_free+0x28>)
    1cb2:	447b      	add	r3, pc
    1cb4:	589b      	ldr	r3, [r3, r2]
    1cb6:	681a      	ldr	r2, [r3, #0]
    1cb8:	9201      	str	r2, [sp, #4]
/home/yocto/yocto-rfpf-new/yocto-rfpf/build/tmp/work/cortexa9hf-vfp-neon-ubinux-linux-gnueabi/optee-os/2.0.0+gitAUTOINC+ca6737b41c-r0/git/lib/libutee/arch/arm/utee_misc.c:59
    1cba:	9a01      	ldr	r2, [sp, #4]
    1cbc:	681b      	ldr	r3, [r3, #0]
    1cbe:	429a      	cmp	r2, r3
    1cc0:	d001      	beq.n	1cc6 <utee_free+0x1a>
    1cc2:	f001 f9c9 	bl	3058 <__stack_chk_fail>
/home/yocto/yocto-rfpf-new/yocto-rfpf/build/tmp/work/cortexa9hf-vfp-neon-ubinux-linux-gnueabi/optee-os/2.0.0+gitAUTOINC+ca6737b41c-r0/git/lib/libutee/arch/arm/utee_misc.c:60
    1cc6:	b003      	add	sp, #12
    1cc8:	f85d eb04 	ldr.w	lr, [sp], #4
/home/yocto/yocto-rfpf-new/yocto-rfpf/build/tmp/work/cortexa9hf-vfp-neon-ubinux-linux-gnueabi/optee-os/2.0.0+gitAUTOINC+ca6737b41c-r0/git/lib/libutee/arch/arm/utee_misc.c:59
    1ccc:	f000 bf06 	b.w	2adc <free>
    1cd0:	0000687a 	.word	0x0000687a
    1cd4:	0000000c 	.word	0x0000000c

00001cd8 <get_rng_array>:
get_rng_array():
/home/yocto/yocto-rfpf-new/yocto-rfpf/build/tmp/work/cortexa9hf-vfp-neon-ubinux-linux-gnueabi/optee-os/2.0.0+gitAUTOINC+ca6737b41c-r0/git/lib/libutee/arch/arm/utee_misc.c:70
    1cd8:	4b08      	ldr	r3, [pc, #32]	; (1cfc <get_rng_array+0x24>)
    1cda:	b507      	push	{r0, r1, r2, lr}
    1cdc:	4a08      	ldr	r2, [pc, #32]	; (1d00 <get_rng_array+0x28>)
    1cde:	447b      	add	r3, pc
    1ce0:	589b      	ldr	r3, [r3, r2]
    1ce2:	681a      	ldr	r2, [r3, #0]
    1ce4:	9201      	str	r2, [sp, #4]
/home/yocto/yocto-rfpf-new/yocto-rfpf/build/tmp/work/cortexa9hf-vfp-neon-ubinux-linux-gnueabi/optee-os/2.0.0+gitAUTOINC+ca6737b41c-r0/git/lib/libutee/arch/arm/utee_misc.c:71
    1ce6:	9a01      	ldr	r2, [sp, #4]
    1ce8:	681b      	ldr	r3, [r3, #0]
    1cea:	429a      	cmp	r2, r3
    1cec:	d001      	beq.n	1cf2 <get_rng_array+0x1a>
    1cee:	f001 f9b3 	bl	3058 <__stack_chk_fail>
/home/yocto/yocto-rfpf-new/yocto-rfpf/build/tmp/work/cortexa9hf-vfp-neon-ubinux-linux-gnueabi/optee-os/2.0.0+gitAUTOINC+ca6737b41c-r0/git/lib/libutee/arch/arm/utee_misc.c:72
    1cf2:	b003      	add	sp, #12
    1cf4:	f85d eb04 	ldr.w	lr, [sp], #4
/home/yocto/yocto-rfpf-new/yocto-rfpf/build/tmp/work/cortexa9hf-vfp-neon-ubinux-linux-gnueabi/optee-os/2.0.0+gitAUTOINC+ca6737b41c-r0/git/lib/libutee/arch/arm/utee_misc.c:71
    1cf8:	f005 b8a2 	b.w	6e40 <__utee_cryp_random_number_generate_from_thumb>
    1cfc:	0000684e 	.word	0x0000684e
    1d00:	0000000c 	.word	0x0000000c

00001d04 <print_buf>:
print_buf():
/home/yocto/yocto-rfpf-new/yocto-rfpf/build/tmp/work/cortexa9hf-vfp-neon-ubinux-linux-gnueabi/optee-os/2.0.0+gitAUTOINC+ca6737b41c-r0/git/lib/libutee/tee_user_mem.c:164
    1d04:	b570      	push	{r4, r5, r6, lr}
    1d06:	b08a      	sub	sp, #40	; 0x28
    1d08:	4d10      	ldr	r5, [pc, #64]	; (1d4c <print_buf+0x48>)
